
/home/tutel/SOC_UVM/verif/sw/build/test_lvl_medium_spi_i2c_cfg.elf:     elf64-littleriscv dosya biçemi

SYMBOL TABLE:
0000000010000000 l    d  .text	0000000000000000 .text
0000000000000000 l    d  .riscv.attributes	0000000000000000 .riscv.attributes
0000000000000000 l    d  .comment	0000000000000000 .comment
0000000000000000 l    df *ABS*	0000000000000000 ccA5sfSn.o
0000000000000000 l    df *ABS*	0000000000000000 test_lvl_medium_spi_i2c_cfg.c
0000000010000000 g       *ABS*	0000000000000000 __base_spm
0000000003004000 g       *ABS*	0000000000000000 __base_spih
0000000003007000 g       *ABS*	0000000000000000 __base_vga
00000000100008e8 g       .text	0000000000000000 __global_pointer
0000000003000000 g       *ABS*	0000000000000000 __base_regs
0000000080000000 g       *ABS*	0000000000000000 __base_dram
00000000100000e8 g       .text	0000000000000000 __bss_end
00000000100000f0 g       .text	0000000000000000 __stack_start
0000000003005000 g       *ABS*	0000000000000000 __base_gpio
0000000003006000 g       *ABS*	0000000000000000 __base_slink
0000000010000000 g     F .text	000000000000004e _start
0000000004000000 g       *ABS*	0000000000000000 __base_plic
0000000002040000 g       *ABS*	0000000000000000 __base_clint
0000000003001000 g       *ABS*	0000000000000000 __base_llc
0000000003003000 g       *ABS*	0000000000000000 __base_i2c
00000000100000e8 g       .text	0000000000000000 __bss_start
000000001000004e g     F .text	0000000000000098 main
0000000003002000 g       *ABS*	0000000000000000 __base_uart
0000000003008000 g       *ABS*	0000000000000000 __base_usb
000000001000fff0 g       .text	0000000000000000 __stack_pointer
0000000010000038 g     F .text	0000000000000000 _exit



Disassembly of section .text:

0000000010000000 <_start>:
    10000000:	30047073          	csrci	mstatus,8
    10000004:	00010117          	auipc	sp,0x10
    10000008:	fec10113          	addi	sp,sp,-20 # 1000fff0 <__stack_pointer>
    1000000c:	00001197          	auipc	gp,0x1
    10000010:	8dc18193          	addi	gp,gp,-1828 # 100008e8 <__global_pointer>
    10000014:	00000297          	auipc	t0,0x0
    10000018:	0d428293          	addi	t0,t0,212 # 100000e8 <__bss_end>
    1000001c:	00000317          	auipc	t1,0x0
    10000020:	0cc30313          	addi	t1,t1,204 # 100000e8 <__bss_end>
    10000024:	0062d663          	bge	t0,t1,10000030 <_start+0x30>
    10000028:	0002b023          	sd	zero,0(t0)
    1000002c:	02a1                	addi	t0,t0,8
    1000002e:	bfdd                	j	10000024 <_start+0x24>
    10000030:	0ff0000f          	fence
    10000034:	01a000ef          	jal	1000004e <main>

0000000010000038 <_exit>:
    10000038:	00151293          	slli	t0,a0,0x1
    1000003c:	0012e293          	ori	t0,t0,1
    10000040:	03000337          	lui	t1,0x3000
    10000044:	00532423          	sw	t0,8(t1) # 3000008 <__base_regs+0x8>
    10000048:	10500073          	wfi
    1000004c:	bff5                	j	10000048 <_exit+0x10>

000000001000004e <main>:
    1000004e:	80000737          	lui	a4,0x80000
    10000052:	030047b7          	lui	a5,0x3004
    10000056:	0705                	addi	a4,a4,1 # ffffffff80000001 <__base_dram+0xffffffff00000001>
    10000058:	cb98                	sw	a4,16(a5)
    1000005a:	030047b7          	lui	a5,0x3004
    1000005e:	00180737          	lui	a4,0x180
    10000062:	cf98                	sw	a4,24(a5)
    10000064:	030047b7          	lui	a5,0x3004
    10000068:	02478793          	addi	a5,a5,36 # 3004024 <__base_spih+0x24>
    1000006c:	4505                	li	a0,1
    1000006e:	03004737          	lui	a4,0x3004
    10000072:	c388                	sw	a0,0(a5)
    10000074:	03470713          	addi	a4,a4,52 # 3004034 <__base_spih+0x34>
    10000078:	46bd                	li	a3,15
    1000007a:	c314                	sw	a3,0(a4)
    1000007c:	0ff0000f          	fence
    10000080:	439c                	lw	a5,0(a5)
    10000082:	8fe9                	and	a5,a5,a0
    10000084:	c3a5                	beqz	a5,100000e4 <main+0x96>
    10000086:	431c                	lw	a5,0(a4)
    10000088:	8ff5                	and	a5,a5,a3
    1000008a:	04d79c63          	bne	a5,a3,100000e2 <main+0x94>
    1000008e:	030047b7          	lui	a5,0x3004
    10000092:	09f00613          	li	a2,159
    10000096:	003a46b7          	lui	a3,0x3a4
    1000009a:	db90                	sw	a2,48(a5)
    1000009c:	0691                	addi	a3,a3,4 # 3a4004 <__base_clint-0x1c9bffc>
    1000009e:	d794                	sw	a3,40(a5)
    100000a0:	030037b7          	lui	a5,0x3003
    100000a4:	00640737          	lui	a4,0x640
    100000a8:	030036b7          	lui	a3,0x3003
    100000ac:	cb88                	sw	a0,16(a5)
    100000ae:	06470713          	addi	a4,a4,100 # 640064 <__base_clint-0x19fff9c>
    100000b2:	da98                	sw	a4,48(a3)
    100000b4:	dad8                	sw	a4,52(a3)
    100000b6:	450d                	li	a0,3
    100000b8:	07c1                	addi	a5,a5,16 # 3003010 <__base_i2c+0x10>
    100000ba:	8636                	mv	a2,a3
    100000bc:	d288                	sw	a0,32(a3)
    100000be:	0ff0000f          	fence
    100000c2:	439c                	lw	a5,0(a5)
    100000c4:	8b85                	andi	a5,a5,1
    100000c6:	cf99                	beqz	a5,100000e4 <main+0x96>
    100000c8:	6685                	lui	a3,0x1
    100000ca:	9a068693          	addi	a3,a3,-1632 # 9a0 <__base_clint-0x203f660>
    100000ce:	6705                	lui	a4,0x1
    100000d0:	ce54                	sw	a3,28(a2)
    100000d2:	81170713          	addi	a4,a4,-2031 # 811 <__base_clint-0x203f7ef>
    100000d6:	ce58                	sw	a4,28(a2)
    100000d8:	22200713          	li	a4,546
    100000dc:	ce58                	sw	a4,28(a2)
    100000de:	4501                	li	a0,0
    100000e0:	8082                	ret
    100000e2:	4509                	li	a0,2
    100000e4:	8082                	ret
