
/home/tutel/SOC_UVM/verif/sw/build/test_concurrent.elf:     elf64-littleriscv dosya biçemi

SYMBOL TABLE:
0000000010000000 l    d  .text	0000000000000000 .text
0000000000000000 l    d  .riscv.attributes	0000000000000000 .riscv.attributes
0000000000000000 l    d  .comment	0000000000000000 .comment
0000000000000000 l    df *ABS*	0000000000000000 ccciNo68.o
0000000000000000 l    df *ABS*	0000000000000000 test_concurrent.c
0000000010000000 g       *ABS*	0000000000000000 __base_spm
0000000003004000 g       *ABS*	0000000000000000 __base_spih
0000000003007000 g       *ABS*	0000000000000000 __base_vga
0000000010000928 g       .text	0000000000000000 __global_pointer
0000000003000000 g       *ABS*	0000000000000000 __base_regs
0000000080000000 g       *ABS*	0000000000000000 __base_dram
0000000010000128 g       .text	0000000000000000 __bss_end
0000000010000130 g       .text	0000000000000000 __stack_start
0000000003005000 g       *ABS*	0000000000000000 __base_gpio
0000000003006000 g       *ABS*	0000000000000000 __base_slink
0000000010000000 g     F .text	000000000000004e _start
0000000004000000 g       *ABS*	0000000000000000 __base_plic
0000000002040000 g       *ABS*	0000000000000000 __base_clint
0000000003001000 g       *ABS*	0000000000000000 __base_llc
0000000003003000 g       *ABS*	0000000000000000 __base_i2c
0000000010000128 g       .text	0000000000000000 __bss_start
000000001000004e g     F .text	00000000000000d8 main
0000000003002000 g       *ABS*	0000000000000000 __base_uart
0000000003008000 g       *ABS*	0000000000000000 __base_usb
000000001000fff0 g       .text	0000000000000000 __stack_pointer
0000000010000038 g     F .text	0000000000000000 _exit



Disassembly of section .text:

0000000010000000 <_start>:
    10000000:	30047073          	csrci	mstatus,8
    10000004:	00010117          	auipc	sp,0x10
    10000008:	fec10113          	addi	sp,sp,-20 # 1000fff0 <__stack_pointer>
    1000000c:	00001197          	auipc	gp,0x1
    10000010:	91c18193          	addi	gp,gp,-1764 # 10000928 <__global_pointer>
    10000014:	00000297          	auipc	t0,0x0
    10000018:	11428293          	addi	t0,t0,276 # 10000128 <__bss_end>
    1000001c:	00000317          	auipc	t1,0x0
    10000020:	10c30313          	addi	t1,t1,268 # 10000128 <__bss_end>
    10000024:	0062d663          	bge	t0,t1,10000030 <_start+0x30>
    10000028:	0002b023          	sd	zero,0(t0)
    1000002c:	02a1                	addi	t0,t0,8
    1000002e:	bfdd                	j	10000024 <_start+0x24>
    10000030:	0ff0000f          	fence
    10000034:	01a000ef          	jal	1000004e <main>

0000000010000038 <_exit>:
    10000038:	00151293          	slli	t0,a0,0x1
    1000003c:	0012e293          	ori	t0,t0,1
    10000040:	03000337          	lui	t1,0x3000
    10000044:	00532423          	sw	t0,8(t1) # 3000008 <__base_regs+0x8>
    10000048:	10500073          	wfi
    1000004c:	bff5                	j	10000048 <_exit+0x10>

000000001000004e <main>:
    1000004e:	6741                	lui	a4,0x10
    10000050:	030057b7          	lui	a5,0x3005
    10000054:	177d                	addi	a4,a4,-1 # ffff <__base_clint-0x2030001>
    10000056:	d398                	sw	a4,32(a5)
    10000058:	030027b7          	lui	a5,0x3002
    1000005c:	470d                	li	a4,3
    1000005e:	c7d8                	sw	a4,12(a5)
    10000060:	04040737          	lui	a4,0x4040
    10000064:	030047b7          	lui	a5,0x3004
    10000068:	41870713          	addi	a4,a4,1048 # 4040418 <__base_plic+0x40418>
    1000006c:	cf98                	sw	a4,24(a5)
    1000006e:	030037b7          	lui	a5,0x3003
    10000072:	07c1                	addi	a5,a5,16 # 3003010 <__base_i2c+0x10>
    10000074:	4685                	li	a3,1
    10000076:	c394                	sw	a3,0(a5)
    10000078:	0ff0000f          	fence
    1000007c:	439c                	lw	a5,0(a5)
    1000007e:	8536                	mv	a0,a3
    10000080:	8ff5                	and	a5,a5,a3
    10000082:	cbc9                	beqz	a5,10000114 <main+0xc6>
    10000084:	03005737          	lui	a4,0x3005
    10000088:	03002837          	lui	a6,0x3002
    1000008c:	030045b7          	lui	a1,0x3004
    10000090:	03003637          	lui	a2,0x3003
    10000094:	0751                	addi	a4,a4,20 # 3005014 <__base_gpio+0x14>
    10000096:	0851                	addi	a6,a6,20 # 3002014 <__base_uart+0x14>
    10000098:	05d1                	addi	a1,a1,20 # 3004014 <__base_spih+0x14>
    1000009a:	0651                	addi	a2,a2,20 # 3003014 <__base_i2c+0x14>
    1000009c:	4501                	li	a0,0
    1000009e:	4315                	li	t1,5
    100000a0:	00a697bb          	sllw	a5,a3,a0
    100000a4:	c31c                	sw	a5,0(a4)
    100000a6:	00082883          	lw	a7,0(a6)
    100000aa:	0005a883          	lw	a7,0(a1)
    100000ae:	00062883          	lw	a7,0(a2)
    100000b2:	00072883          	lw	a7,0(a4)
    100000b6:	0117c7b3          	xor	a5,a5,a7
    100000ba:	17c2                	slli	a5,a5,0x30
    100000bc:	93c1                	srli	a5,a5,0x30
    100000be:	efa1                	bnez	a5,10000116 <main+0xc8>
    100000c0:	2505                	addiw	a0,a0,1
    100000c2:	fc651fe3          	bne	a0,t1,100000a0 <main+0x52>
    100000c6:	65b5                	lui	a1,0xd
    100000c8:	afe58593          	addi	a1,a1,-1282 # cafe <__base_clint-0x2033502>
    100000cc:	03004637          	lui	a2,0x3004
    100000d0:	c30c                	sw	a1,0(a4)
    100000d2:	4505                	li	a0,1
    100000d4:	030026b7          	lui	a3,0x3002
    100000d8:	d248                	sw	a0,36(a2)
    100000da:	030037b7          	lui	a5,0x3003
    100000de:	07c1                	addi	a5,a5,16 # 3003010 <__base_i2c+0x10>
    100000e0:	0006a823          	sw	zero,16(a3) # 3002010 <__base_uart+0x10>
    100000e4:	02460613          	addi	a2,a2,36 # 3004024 <__base_spih+0x24>
    100000e8:	06c1                	addi	a3,a3,16
    100000ea:	c388                	sw	a0,0(a5)
    100000ec:	0ff0000f          	fence
    100000f0:	439c                	lw	a5,0(a5)
    100000f2:	8fe9                	and	a5,a5,a0
    100000f4:	c39d                	beqz	a5,1000011a <main+0xcc>
    100000f6:	429c                	lw	a5,0(a3)
    100000f8:	0ff7f793          	zext.b	a5,a5
    100000fc:	e38d                	bnez	a5,1000011e <main+0xd0>
    100000fe:	421c                	lw	a5,0(a2)
    10000100:	8fe9                	and	a5,a5,a0
    10000102:	c385                	beqz	a5,10000122 <main+0xd4>
    10000104:	431c                	lw	a5,0(a4)
    10000106:	17c2                	slli	a5,a5,0x30
    10000108:	93c1                	srli	a5,a5,0x30
    1000010a:	00b79463          	bne	a5,a1,10000112 <main+0xc4>
    1000010e:	4501                	li	a0,0
    10000110:	8082                	ret
    10000112:	455d                	li	a0,23
    10000114:	8082                	ret
    10000116:	2529                	addiw	a0,a0,10
    10000118:	8082                	ret
    1000011a:	4551                	li	a0,20
    1000011c:	8082                	ret
    1000011e:	4555                	li	a0,21
    10000120:	8082                	ret
    10000122:	4559                	li	a0,22
    10000124:	8082                	ret
