
/home/tutel/SOC_UVM/verif/sw/build/test_reg_reset.elf:     elf64-littleriscv dosya biçemi

SYMBOL TABLE:
0000000010000000 l    d  .text	0000000000000000 .text
0000000000000000 l    d  .riscv.attributes	0000000000000000 .riscv.attributes
0000000000000000 l    d  .comment	0000000000000000 .comment
0000000000000000 l    df *ABS*	0000000000000000 cca66VYA.o
0000000000000000 l    df *ABS*	0000000000000000 test_reg_reset.c
0000000010000000 g       *ABS*	0000000000000000 __base_spm
0000000003004000 g       *ABS*	0000000000000000 __base_spih
0000000003007000 g       *ABS*	0000000000000000 __base_vga
0000000010000928 g       .text	0000000000000000 __global_pointer
0000000003000000 g       *ABS*	0000000000000000 __base_regs
0000000080000000 g       *ABS*	0000000000000000 __base_dram
0000000010000128 g       .text	0000000000000000 __bss_end
0000000010000130 g       .text	0000000000000000 __stack_start
0000000003005000 g       *ABS*	0000000000000000 __base_gpio
0000000003006000 g       *ABS*	0000000000000000 __base_slink
0000000010000000 g     F .text	000000000000004e _start
0000000004000000 g       *ABS*	0000000000000000 __base_plic
0000000002040000 g       *ABS*	0000000000000000 __base_clint
0000000003001000 g       *ABS*	0000000000000000 __base_llc
0000000003003000 g       *ABS*	0000000000000000 __base_i2c
0000000010000128 g       .text	0000000000000000 __bss_start
000000001000004e g     F .text	00000000000000da main
0000000003002000 g       *ABS*	0000000000000000 __base_uart
0000000003008000 g       *ABS*	0000000000000000 __base_usb
000000001000fff0 g       .text	0000000000000000 __stack_pointer
0000000010000038 g     F .text	0000000000000000 _exit



Disassembly of section .text:

0000000010000000 <_start>:
    10000000:	30047073          	csrci	mstatus,8
    10000004:	00010117          	auipc	sp,0x10
    10000008:	fec10113          	addi	sp,sp,-20 # 1000fff0 <__stack_pointer>
    1000000c:	00001197          	auipc	gp,0x1
    10000010:	91c18193          	addi	gp,gp,-1764 # 10000928 <__global_pointer>
    10000014:	00000297          	auipc	t0,0x0
    10000018:	11428293          	addi	t0,t0,276 # 10000128 <__bss_end>
    1000001c:	00000317          	auipc	t1,0x0
    10000020:	10c30313          	addi	t1,t1,268 # 10000128 <__bss_end>
    10000024:	0062d663          	bge	t0,t1,10000030 <_start+0x30>
    10000028:	0002b023          	sd	zero,0(t0)
    1000002c:	02a1                	addi	t0,t0,8
    1000002e:	bfdd                	j	10000024 <_start+0x24>
    10000030:	0ff0000f          	fence
    10000034:	01a000ef          	jal	1000004e <main>

0000000010000038 <_exit>:
    10000038:	00151293          	slli	t0,a0,0x1
    1000003c:	0012e293          	ori	t0,t0,1
    10000040:	03000337          	lui	t1,0x3000
    10000044:	00532423          	sw	t0,8(t1) # 3000008 <__base_regs+0x8>
    10000048:	10500073          	wfi
    1000004c:	bff5                	j	10000048 <_exit+0x10>

000000001000004e <main>:
    1000004e:	030057b7          	lui	a5,0x3005
    10000052:	439c                	lw	a5,0(a5)
    10000054:	4505                	li	a0,1
    10000056:	efd9                	bnez	a5,100000f4 <main+0xa6>
    10000058:	030057b7          	lui	a5,0x3005
    1000005c:	0791                	addi	a5,a5,4 # 3005004 <__base_gpio+0x4>
    1000005e:	439c                	lw	a5,0(a5)
    10000060:	ebd9                	bnez	a5,100000f6 <main+0xa8>
    10000062:	030057b7          	lui	a5,0x3005
    10000066:	07d1                	addi	a5,a5,20 # 3005014 <__base_gpio+0x14>
    10000068:	439c                	lw	a5,0(a5)
    1000006a:	ebd1                	bnez	a5,100000fe <main+0xb0>
    1000006c:	030057b7          	lui	a5,0x3005
    10000070:	02078793          	addi	a5,a5,32 # 3005020 <__base_gpio+0x20>
    10000074:	439c                	lw	a5,0(a5)
    10000076:	e3d1                	bnez	a5,100000fa <main+0xac>
    10000078:	030027b7          	lui	a5,0x3002
    1000007c:	0791                	addi	a5,a5,4 # 3002004 <__base_uart+0x4>
    1000007e:	439c                	lw	a5,0(a5)
    10000080:	8bbd                	andi	a5,a5,15
    10000082:	e3c1                	bnez	a5,10000102 <main+0xb4>
    10000084:	030027b7          	lui	a5,0x3002
    10000088:	07b1                	addi	a5,a5,12 # 300200c <__base_uart+0xc>
    1000008a:	439c                	lw	a5,0(a5)
    1000008c:	0ff7f793          	zext.b	a5,a5
    10000090:	efad                	bnez	a5,1000010a <main+0xbc>
    10000092:	030027b7          	lui	a5,0x3002
    10000096:	07c1                	addi	a5,a5,16 # 3002010 <__base_uart+0x10>
    10000098:	439c                	lw	a5,0(a5)
    1000009a:	8bfd                	andi	a5,a5,31
    1000009c:	ebad                	bnez	a5,1000010e <main+0xc0>
    1000009e:	030027b7          	lui	a5,0x3002
    100000a2:	07d1                	addi	a5,a5,20 # 3002014 <__base_uart+0x14>
    100000a4:	439c                	lw	a5,0(a5)
    100000a6:	0207f793          	andi	a5,a5,32
    100000aa:	cfb1                	beqz	a5,10000106 <main+0xb8>
    100000ac:	030047b7          	lui	a5,0x3004
    100000b0:	07c1                	addi	a5,a5,16 # 3004010 <__base_spih+0x10>
    100000b2:	439c                	lw	a5,0(a5)
    100000b4:	0607c363          	bltz	a5,1000011a <main+0xcc>
    100000b8:	030047b7          	lui	a5,0x3004
    100000bc:	02478793          	addi	a5,a5,36 # 3004024 <__base_spih+0x24>
    100000c0:	439c                	lw	a5,0(a5)
    100000c2:	eba1                	bnez	a5,10000112 <main+0xc4>
    100000c4:	030037b7          	lui	a5,0x3003
    100000c8:	439c                	lw	a5,0(a5)
    100000ca:	17c6                	slli	a5,a5,0x31
    100000cc:	e7a9                	bnez	a5,10000116 <main+0xc8>
    100000ce:	030037b7          	lui	a5,0x3003
    100000d2:	07c1                	addi	a5,a5,16 # 3003010 <__base_i2c+0x10>
    100000d4:	439c                	lw	a5,0(a5)
    100000d6:	8fe9                	and	a5,a5,a0
    100000d8:	e3b9                	bnez	a5,1000011e <main+0xd0>
    100000da:	030037b7          	lui	a5,0x3003
    100000de:	07d1                	addi	a5,a5,20 # 3003014 <__base_i2c+0x14>
    100000e0:	439c                	lw	a5,0(a5)
    100000e2:	0087f713          	andi	a4,a5,8
    100000e6:	cf15                	beqz	a4,10000122 <main+0xd4>
    100000e8:	8b91                	andi	a5,a5,4
    100000ea:	c399                	beqz	a5,100000f0 <main+0xa2>
    100000ec:	4501                	li	a0,0
    100000ee:	8082                	ret
    100000f0:	02100513          	li	a0,33
    100000f4:	8082                	ret
    100000f6:	4509                	li	a0,2
    100000f8:	8082                	ret
    100000fa:	4511                	li	a0,4
    100000fc:	8082                	ret
    100000fe:	450d                	li	a0,3
    10000100:	8082                	ret
    10000102:	4529                	li	a0,10
    10000104:	8082                	ret
    10000106:	4535                	li	a0,13
    10000108:	8082                	ret
    1000010a:	452d                	li	a0,11
    1000010c:	8082                	ret
    1000010e:	4531                	li	a0,12
    10000110:	8082                	ret
    10000112:	4555                	li	a0,21
    10000114:	8082                	ret
    10000116:	4579                	li	a0,30
    10000118:	8082                	ret
    1000011a:	4551                	li	a0,20
    1000011c:	8082                	ret
    1000011e:	457d                	li	a0,31
    10000120:	8082                	ret
    10000122:	02000513          	li	a0,32
    10000126:	8082                	ret
