
/home/tutel/SOC_UVM/verif/sw/build/test_memmap_sweep.elf:     elf64-littleriscv dosya biçemi

SYMBOL TABLE:
0000000010000000 l    d  .text	0000000000000000 .text
0000000000000000 l    d  .riscv.attributes	0000000000000000 .riscv.attributes
0000000000000000 l    d  .comment	0000000000000000 .comment
0000000000000000 l    df *ABS*	0000000000000000 ccCVGg1N.o
0000000000000000 l    df *ABS*	0000000000000000 test_memmap_sweep.c
0000000010000000 g       *ABS*	0000000000000000 __base_spm
0000000003004000 g       *ABS*	0000000000000000 __base_spih
0000000003007000 g       *ABS*	0000000000000000 __base_vga
0000000010000950 g       .text	0000000000000000 __global_pointer
0000000003000000 g       *ABS*	0000000000000000 __base_regs
0000000080000000 g       *ABS*	0000000000000000 __base_dram
0000000010000150 g       .text	0000000000000000 __bss_end
0000000010000150 g       .text	0000000000000000 __stack_start
0000000003005000 g       *ABS*	0000000000000000 __base_gpio
0000000003006000 g       *ABS*	0000000000000000 __base_slink
0000000010000000 g     F .text	000000000000004e _start
0000000004000000 g       *ABS*	0000000000000000 __base_plic
0000000002040000 g       *ABS*	0000000000000000 __base_clint
0000000003001000 g       *ABS*	0000000000000000 __base_llc
0000000003003000 g       *ABS*	0000000000000000 __base_i2c
0000000010000150 g       .text	0000000000000000 __bss_start
000000001000004e g     F .text	0000000000000102 main
0000000003002000 g       *ABS*	0000000000000000 __base_uart
0000000003008000 g       *ABS*	0000000000000000 __base_usb
000000001000fff0 g       .text	0000000000000000 __stack_pointer
0000000010000038 g     F .text	0000000000000000 _exit



Disassembly of section .text:

0000000010000000 <_start>:
    10000000:	30047073          	csrci	mstatus,8
    10000004:	00010117          	auipc	sp,0x10
    10000008:	fec10113          	addi	sp,sp,-20 # 1000fff0 <__stack_pointer>
    1000000c:	00001197          	auipc	gp,0x1
    10000010:	94418193          	addi	gp,gp,-1724 # 10000950 <__global_pointer>
    10000014:	00000297          	auipc	t0,0x0
    10000018:	13c28293          	addi	t0,t0,316 # 10000150 <__bss_end>
    1000001c:	00000317          	auipc	t1,0x0
    10000020:	13430313          	addi	t1,t1,308 # 10000150 <__bss_end>
    10000024:	0062d663          	bge	t0,t1,10000030 <_start+0x30>
    10000028:	0002b023          	sd	zero,0(t0)
    1000002c:	02a1                	addi	t0,t0,8
    1000002e:	bfdd                	j	10000024 <_start+0x24>
    10000030:	0ff0000f          	fence
    10000034:	01a000ef          	jal	1000004e <main>

0000000010000038 <_exit>:
    10000038:	00151293          	slli	t0,a0,0x1
    1000003c:	0012e293          	ori	t0,t0,1
    10000040:	03000337          	lui	t1,0x3000
    10000044:	00532423          	sw	t0,8(t1) # 3000008 <__base_regs+0x8>
    10000048:	10500073          	wfi
    1000004c:	bff5                	j	10000048 <_exit+0x10>

000000001000004e <main>:
    1000004e:	1234b7b7          	lui	a5,0x1234b
    10000052:	03000637          	lui	a2,0x3000
    10000056:	bcd78793          	addi	a5,a5,-1075 # 1234abcd <__stack_pointer+0x233abdd>
    1000005a:	a5a56737          	lui	a4,0xa5a56
    1000005e:	c21c                	sw	a5,0(a2)
    10000060:	00460693          	addi	a3,a2,4 # 3000004 <__base_regs+0x4>
    10000064:	a5a70713          	addi	a4,a4,-1446 # ffffffffa5a55a5a <__base_dram+0xffffffff25a55a5a>
    10000068:	c298                	sw	a4,0(a3)
    1000006a:	0ff0000f          	fence
    1000006e:	4210                	lw	a2,0(a2)
    10000070:	4505                	li	a0,1
    10000072:	0cf61663          	bne	a2,a5,1000013e <main+0xf0>
    10000076:	429c                	lw	a5,0(a3)
    10000078:	0ce79463          	bne	a5,a4,10000140 <main+0xf2>
    1000007c:	030025b7          	lui	a1,0x3002
    10000080:	03004637          	lui	a2,0x3004
    10000084:	030036b7          	lui	a3,0x3003
    10000088:	03005737          	lui	a4,0x3005
    1000008c:	05d1                	addi	a1,a1,20 # 3002014 <__base_uart+0x14>
    1000008e:	0651                	addi	a2,a2,20 # 3004014 <__base_spih+0x14>
    10000090:	06d1                	addi	a3,a3,20 # 3003014 <__base_i2c+0x14>
    10000092:	0741                	addi	a4,a4,16 # 3005010 <__base_gpio+0x10>
    10000094:	418c                	lw	a1,0(a1)
    10000096:	030068b7          	lui	a7,0x3006
    1000009a:	4210                	lw	a2,0(a2)
    1000009c:	0204c7b7          	lui	a5,0x204c
    100000a0:	4294                	lw	a3,0(a3)
    100000a2:	4318                	lw	a4,0(a4)
    100000a4:	0008a703          	lw	a4,0(a7) # 3006000 <__base_slink>
    100000a8:	17e1                	addi	a5,a5,-8 # 204bff8 <__base_clint+0xbff8>
    100000aa:	02040837          	lui	a6,0x2040
    100000ae:	00082703          	lw	a4,0(a6) # 2040000 <__base_clint>
    100000b2:	04000537          	lui	a0,0x4000
    100000b6:	439c                	lw	a5,0(a5)
    100000b8:	411c                	lw	a5,0(a0)
    100000ba:	020006b7          	lui	a3,0x2000
    100000be:	02068693          	addi	a3,a3,32 # 2000020 <__base_clint-0x3ffe0>
    100000c2:	020007b7          	lui	a5,0x2000
    100000c6:	4601                	li	a2,0
    100000c8:	4398                	lw	a4,0(a5)
    100000ca:	0791                	addi	a5,a5,4 # 2000004 <__base_clint-0x3fffc>
    100000cc:	c311                	beqz	a4,100000d0 <main+0x82>
    100000ce:	2605                	addiw	a2,a2,1
    100000d0:	fed79ce3          	bne	a5,a3,100000c8 <main+0x7a>
    100000d4:	ca35                	beqz	a2,10000148 <main+0xfa>
    100000d6:	030027b7          	lui	a5,0x3002
    100000da:	07d1                	addi	a5,a5,20 # 3002014 <__base_uart+0x14>
    100000dc:	439c                	lw	a5,0(a5)
    100000de:	0207f793          	andi	a5,a5,32
    100000e2:	c7ad                	beqz	a5,1000014c <main+0xfe>
    100000e4:	cafe1737          	lui	a4,0xcafe1
    100000e8:	100098b7          	lui	a7,0x10009
    100000ec:	0705                	addi	a4,a4,1 # ffffffffcafe1001 <__base_dram+0xffffffff4afe1001>
    100000ee:	cafe16b7          	lui	a3,0xcafe1
    100000f2:	00e8a023          	sw	a4,0(a7) # 10009000 <__global_pointer+0x86b0>
    100000f6:	00488613          	addi	a2,a7,4
    100000fa:	0689                	addi	a3,a3,2 # ffffffffcafe1002 <__base_dram+0xffffffff4afe1002>
    100000fc:	08011537          	lui	a0,0x8011
    10000100:	d00d25b7          	lui	a1,0xd00d2
    10000104:	0512                	slli	a0,a0,0x4
    10000106:	c214                	sw	a3,0(a2)
    10000108:	0585                	addi	a1,a1,1 # ffffffffd00d2001 <__base_dram+0xffffffff500d2001>
    1000010a:	d00d2837          	lui	a6,0xd00d2
    1000010e:	c10c                	sw	a1,0(a0)
    10000110:	00450793          	addi	a5,a0,4 # 8011004 <__base_plic+0x4011004>
    10000114:	0809                	addi	a6,a6,2 # ffffffffd00d2002 <__base_dram+0xffffffff500d2002>
    10000116:	0107a023          	sw	a6,0(a5)
    1000011a:	0ff0000f          	fence
    1000011e:	0008a883          	lw	a7,0(a7)
    10000122:	02e89163          	bne	a7,a4,10000144 <main+0xf6>
    10000126:	4218                	lw	a4,0(a2)
    10000128:	00d71e63          	bne	a4,a3,10000144 <main+0xf6>
    1000012c:	4118                	lw	a4,0(a0)
    1000012e:	00b71763          	bne	a4,a1,1000013c <main+0xee>
    10000132:	439c                	lw	a5,0(a5)
    10000134:	01079463          	bne	a5,a6,1000013c <main+0xee>
    10000138:	4501                	li	a0,0
    1000013a:	8082                	ret
    1000013c:	4555                	li	a0,21
    1000013e:	8082                	ret
    10000140:	4509                	li	a0,2
    10000142:	8082                	ret
    10000144:	4551                	li	a0,20
    10000146:	8082                	ret
    10000148:	4529                	li	a0,10
    1000014a:	8082                	ret
    1000014c:	452d                	li	a0,11
    1000014e:	8082                	ret
