
/home/tutel/SOC_UVM/verif/sw/build/test_lvl_easy_uart_hello.elf:     elf64-littleriscv dosya biçemi

SYMBOL TABLE:
0000000010000000 l    d  .text	0000000000000000 .text
0000000010000138 l    d  .rodata	0000000000000000 .rodata
0000000000000000 l    d  .riscv.attributes	0000000000000000 .riscv.attributes
0000000000000000 l    d  .comment	0000000000000000 .comment
0000000000000000 l    df *ABS*	0000000000000000 ccDctyhy.o
0000000000000000 l    df *ABS*	0000000000000000 test_lvl_easy_uart_hello.c
000000001000004e l     F .text	0000000000000026 uart_puts
0000000010000000 g       *ABS*	0000000000000000 __base_spm
0000000003004000 g       *ABS*	0000000000000000 __base_spih
0000000003007000 g       *ABS*	0000000000000000 __base_vga
0000000010000978 g       .rodata	0000000000000000 __global_pointer
0000000003000000 g       *ABS*	0000000000000000 __base_regs
0000000080000000 g       *ABS*	0000000000000000 __base_dram
0000000010000178 g       .rodata	0000000000000000 __bss_end
0000000010000180 g       .rodata	0000000000000000 __stack_start
0000000003005000 g       *ABS*	0000000000000000 __base_gpio
0000000003006000 g       *ABS*	0000000000000000 __base_slink
0000000010000000 g     F .text	000000000000004e _start
0000000004000000 g       *ABS*	0000000000000000 __base_plic
0000000002040000 g       *ABS*	0000000000000000 __base_clint
0000000003001000 g       *ABS*	0000000000000000 __base_llc
0000000003003000 g       *ABS*	0000000000000000 __base_i2c
0000000010000178 g       .rodata	0000000000000000 __bss_start
0000000010000074 g     F .text	00000000000000c2 main
0000000003002000 g       *ABS*	0000000000000000 __base_uart
0000000003008000 g       *ABS*	0000000000000000 __base_usb
000000001000fff0 g       .rodata	0000000000000000 __stack_pointer
0000000010000038 g     F .text	0000000000000000 _exit



Disassembly of section .text:

0000000010000000 <_start>:
    10000000:	30047073          	csrci	mstatus,8
    10000004:	00010117          	auipc	sp,0x10
    10000008:	fec10113          	addi	sp,sp,-20 # 1000fff0 <__stack_pointer>
    1000000c:	00001197          	auipc	gp,0x1
    10000010:	96c18193          	addi	gp,gp,-1684 # 10000978 <__global_pointer>
    10000014:	00000297          	auipc	t0,0x0
    10000018:	16428293          	addi	t0,t0,356 # 10000178 <__bss_end>
    1000001c:	00000317          	auipc	t1,0x0
    10000020:	15c30313          	addi	t1,t1,348 # 10000178 <__bss_end>
    10000024:	0062d663          	bge	t0,t1,10000030 <_start+0x30>
    10000028:	0002b023          	sd	zero,0(t0)
    1000002c:	02a1                	addi	t0,t0,8
    1000002e:	bfdd                	j	10000024 <_start+0x24>
    10000030:	0ff0000f          	fence
    10000034:	040000ef          	jal	10000074 <main>

0000000010000038 <_exit>:
    10000038:	00151293          	slli	t0,a0,0x1
    1000003c:	0012e293          	ori	t0,t0,1
    10000040:	03000337          	lui	t1,0x3000
    10000044:	00532423          	sw	t0,8(t1) # 3000008 <__base_regs+0x8>
    10000048:	10500073          	wfi
    1000004c:	bff5                	j	10000048 <_exit+0x10>

000000001000004e <uart_puts>:
    1000004e:	00054683          	lbu	a3,0(a0)
    10000052:	c285                	beqz	a3,10000072 <uart_puts+0x24>
    10000054:	03002737          	lui	a4,0x3002
    10000058:	0751                	addi	a4,a4,20 # 3002014 <__base_uart+0x14>
    1000005a:	03002637          	lui	a2,0x3002
    1000005e:	0505                	addi	a0,a0,1
    10000060:	431c                	lw	a5,0(a4)
    10000062:	0207f793          	andi	a5,a5,32
    10000066:	dfed                	beqz	a5,10000060 <uart_puts+0x12>
    10000068:	2681                	sext.w	a3,a3
    1000006a:	c214                	sw	a3,0(a2)
    1000006c:	00054683          	lbu	a3,0(a0)
    10000070:	f6fd                	bnez	a3,1000005e <uart_puts+0x10>
    10000072:	8082                	ret

0000000010000074 <main>:
    10000074:	030007b7          	lui	a5,0x3000
    10000078:	4bd8                	lw	a4,20(a5)
    1000007a:	1141                	addi	sp,sp,-16
    1000007c:	e406                	sd	ra,8(sp)
    1000007e:	e022                	sd	s0,0(sp)
    10000080:	c355                	beqz	a4,10000124 <main+0xb0>
    10000082:	5f600793          	li	a5,1526
    10000086:	02e787bb          	mulw	a5,a5,a4
    1000008a:	00092737          	lui	a4,0x92
    1000008e:	a2b70713          	addi	a4,a4,-1493 # 91a2b <__base_clint-0x1fae5d5>
    10000092:	1782                	slli	a5,a5,0x20
    10000094:	0732                	slli	a4,a4,0xc
    10000096:	3c570713          	addi	a4,a4,965
    1000009a:	9381                	srli	a5,a5,0x20
    1000009c:	03002637          	lui	a2,0x3002
    100000a0:	00062223          	sw	zero,4(a2) # 3002004 <__base_uart+0x4>
    100000a4:	08000693          	li	a3,128
    100000a8:	02e787b3          	mul	a5,a5,a4
    100000ac:	440d                	li	s0,3
    100000ae:	459d                	li	a1,7
    100000b0:	00000517          	auipc	a0,0x0
    100000b4:	00c60713          	addi	a4,a2,12
    100000b8:	08850513          	addi	a0,a0,136 # 10000138 <main+0xc4>
    100000bc:	93d1                	srli	a5,a5,0x34
    100000be:	c314                	sw	a3,0(a4)
    100000c0:	0ff7f893          	zext.b	a7,a5
    100000c4:	01162023          	sw	a7,0(a2)
    100000c8:	0087d79b          	srliw	a5,a5,0x8
    100000cc:	c25c                	sw	a5,4(a2)
    100000ce:	c300                	sw	s0,0(a4)
    100000d0:	c60c                	sw	a1,8(a2)
    100000d2:	f7dff0ef          	jal	1000004e <uart_puts>
    100000d6:	e00107b7          	lui	a5,0xe0010
    100000da:	03000637          	lui	a2,0x3000
    100000de:	0785                	addi	a5,a5,1 # ffffffffe0010001 <__base_dram+0xffffffff60010001>
    100000e0:	e0010737          	lui	a4,0xe0010
    100000e4:	c21c                	sw	a5,0(a2)
    100000e6:	00460693          	addi	a3,a2,4 # 3000004 <__base_regs+0x4>
    100000ea:	0709                	addi	a4,a4,2 # ffffffffe0010002 <__base_dram+0xffffffff60010002>
    100000ec:	c298                	sw	a4,0(a3)
    100000ee:	0ff0000f          	fence
    100000f2:	4210                	lw	a2,0(a2)
    100000f4:	4505                	li	a0,1
    100000f6:	02f61363          	bne	a2,a5,1000011c <main+0xa8>
    100000fa:	429c                	lw	a5,0(a3)
    100000fc:	02e79963          	bne	a5,a4,1000012e <main+0xba>
    10000100:	030027b7          	lui	a5,0x3002
    10000104:	07d1                	addi	a5,a5,20 # 3002014 <__base_uart+0x14>
    10000106:	439c                	lw	a5,0(a5)
    10000108:	0207f793          	andi	a5,a5,32
    1000010c:	c39d                	beqz	a5,10000132 <main+0xbe>
    1000010e:	00000517          	auipc	a0,0x0
    10000112:	04a50513          	addi	a0,a0,74 # 10000158 <main+0xe4>
    10000116:	f39ff0ef          	jal	1000004e <uart_puts>
    1000011a:	4501                	li	a0,0
    1000011c:	60a2                	ld	ra,8(sp)
    1000011e:	6402                	ld	s0,0(sp)
    10000120:	0141                	addi	sp,sp,16
    10000122:	8082                	ret
    10000124:	02faf7b7          	lui	a5,0x2faf
    10000128:	08078793          	addi	a5,a5,128 # 2faf080 <__base_clint+0xf6f080>
    1000012c:	bfb9                	j	1000008a <main+0x16>
    1000012e:	4509                	li	a0,2
    10000130:	b7f5                	j	1000011c <main+0xa8>
    10000132:	8522                	mv	a0,s0
    10000134:	b7e5                	j	1000011c <main+0xa8>
