
/home/tutel/SOC_UVM/verif/sw/build/test_periph_stress.elf:     elf64-littleriscv dosya biçemi

SYMBOL TABLE:
0000000010000000 l    d  .text	0000000000000000 .text
0000000010000208 l    d  .rodata	0000000000000000 .rodata
0000000000000000 l    d  .riscv.attributes	0000000000000000 .riscv.attributes
0000000000000000 l    d  .comment	0000000000000000 .comment
0000000000000000 l    df *ABS*	0000000000000000 ccsZw0Xj.o
0000000000000000 l    df *ABS*	0000000000000000 test_periph_stress.c
0000000010000000 g       *ABS*	0000000000000000 __base_spm
0000000003004000 g       *ABS*	0000000000000000 __base_spih
0000000003007000 g       *ABS*	0000000000000000 __base_vga
0000000010000a40 g       .rodata	0000000000000000 __global_pointer
0000000003000000 g       *ABS*	0000000000000000 __base_regs
0000000080000000 g       *ABS*	0000000000000000 __base_dram
0000000010000240 g       .rodata	0000000000000000 __bss_end
0000000010000240 g       .rodata	0000000000000000 __stack_start
0000000003005000 g       *ABS*	0000000000000000 __base_gpio
0000000003006000 g       *ABS*	0000000000000000 __base_slink
0000000010000000 g     F .text	000000000000004e _start
0000000004000000 g       *ABS*	0000000000000000 __base_plic
0000000002040000 g       *ABS*	0000000000000000 __base_clint
0000000003001000 g       *ABS*	0000000000000000 __base_llc
0000000003003000 g       *ABS*	0000000000000000 __base_i2c
0000000010000240 g       .rodata	0000000000000000 __bss_start
000000001000004e g     F .text	00000000000001ba main
0000000003002000 g       *ABS*	0000000000000000 __base_uart
0000000003008000 g       *ABS*	0000000000000000 __base_usb
000000001000fff0 g       .rodata	0000000000000000 __stack_pointer
0000000010000038 g     F .text	0000000000000000 _exit



Disassembly of section .text:

0000000010000000 <_start>:
    10000000:	30047073          	csrci	mstatus,8
    10000004:	00010117          	auipc	sp,0x10
    10000008:	fec10113          	addi	sp,sp,-20 # 1000fff0 <__stack_pointer>
    1000000c:	00001197          	auipc	gp,0x1
    10000010:	a3418193          	addi	gp,gp,-1484 # 10000a40 <__global_pointer>
    10000014:	00000297          	auipc	t0,0x0
    10000018:	22c28293          	addi	t0,t0,556 # 10000240 <__bss_end>
    1000001c:	00000317          	auipc	t1,0x0
    10000020:	22430313          	addi	t1,t1,548 # 10000240 <__bss_end>
    10000024:	0062d663          	bge	t0,t1,10000030 <_start+0x30>
    10000028:	0002b023          	sd	zero,0(t0)
    1000002c:	02a1                	addi	t0,t0,8
    1000002e:	bfdd                	j	10000024 <_start+0x24>
    10000030:	0ff0000f          	fence
    10000034:	01a000ef          	jal	1000004e <main>

0000000010000038 <_exit>:
    10000038:	00151293          	slli	t0,a0,0x1
    1000003c:	0012e293          	ori	t0,t0,1
    10000040:	03000337          	lui	t1,0x3000
    10000044:	00532423          	sw	t0,8(t1) # 3000008 <__base_regs+0x8>
    10000048:	10500073          	wfi
    1000004c:	bff5                	j	10000048 <_exit+0x10>

000000001000004e <main>:
    1000004e:	03005737          	lui	a4,0x3005
    10000052:	030026b7          	lui	a3,0x3002
    10000056:	03004337          	lui	t1,0x3004
    1000005a:	030038b7          	lui	a7,0x3003
    1000005e:	02070713          	addi	a4,a4,32 # 3005020 <__base_gpio+0x20>
    10000062:	06f1                	addi	a3,a3,28 # 300201c <__base_uart+0x1c>
    10000064:	02430313          	addi	t1,t1,36 # 3004024 <__base_spih+0x24>
    10000068:	08d1                	addi	a7,a7,20 # 3003014 <__base_i2c+0x14>
    1000006a:	4501                	li	a0,0
    1000006c:	4e05                	li	t3,1
    1000006e:	4ea9                	li	t4,10
    10000070:	00ae17bb          	sllw	a5,t3,a0
    10000074:	c31c                	sw	a5,0(a4)
    10000076:	4310                	lw	a2,0(a4)
    10000078:	0ff7f593          	zext.b	a1,a5
    1000007c:	00157813          	andi	a6,a0,1
    10000080:	16c79163          	bne	a5,a2,100001e2 <main+0x194>
    10000084:	c28c                	sw	a1,0(a3)
    10000086:	4290                	lw	a2,0(a3)
    10000088:	8fb1                	xor	a5,a5,a2
    1000008a:	0ff7f793          	zext.b	a5,a5
    1000008e:	14079c63          	bnez	a5,100001e6 <main+0x198>
    10000092:	01032023          	sw	a6,0(t1)
    10000096:	0008a783          	lw	a5,0(a7)
    1000009a:	2505                	addiw	a0,a0,1
    1000009c:	fdd51ae3          	bne	a0,t4,10000070 <main+0x22>
    100000a0:	030056b7          	lui	a3,0x3005
    100000a4:	06d1                	addi	a3,a3,20 # 3005014 <__base_gpio+0x14>
    100000a6:	4781                	li	a5,0
    100000a8:	4585                	li	a1,1
    100000aa:	4621                	li	a2,8
    100000ac:	00f5973b          	sllw	a4,a1,a5
    100000b0:	c298                	sw	a4,0(a3)
    100000b2:	2785                	addiw	a5,a5,1
    100000b4:	fec79ce3          	bne	a5,a2,100000ac <main+0x5e>
    100000b8:	4298                	lw	a4,0(a3)
    100000ba:	08000793          	li	a5,128
    100000be:	10f71f63          	bne	a4,a5,100001dc <main+0x18e>
    100000c2:	00000797          	auipc	a5,0x0
    100000c6:	14678793          	addi	a5,a5,326 # 10000208 <main+0x1ba>
    100000ca:	6790                	ld	a2,8(a5)
    100000cc:	6f98                	ld	a4,24(a5)
    100000ce:	638c                	ld	a1,0(a5)
    100000d0:	6b94                	ld	a3,16(a5)
    100000d2:	739c                	ld	a5,32(a5)
    100000d4:	7179                	addi	sp,sp,-48
    100000d6:	e832                	sd	a2,16(sp)
    100000d8:	f03a                	sd	a4,32(sp)
    100000da:	f43e                	sd	a5,40(sp)
    100000dc:	e42e                	sd	a1,8(sp)
    100000de:	ec36                	sd	a3,24(sp)
    100000e0:	0038                	addi	a4,sp,8
    100000e2:	4781                	li	a5,0
    100000e4:	4615                	li	a2,5
    100000e6:	6314                	ld	a3,0(a4)
    100000e8:	2785                	addiw	a5,a5,1
    100000ea:	0721                	addi	a4,a4,8
    100000ec:	c29c                	sw	a5,0(a3)
    100000ee:	fec79ce3          	bne	a5,a2,100000e6 <main+0x98>
    100000f2:	030037b7          	lui	a5,0x3003
    100000f6:	07c1                	addi	a5,a5,16 # 3003010 <__base_i2c+0x10>
    100000f8:	439c                	lw	a5,0(a5)
    100000fa:	03c00513          	li	a0,60
    100000fe:	8b85                	andi	a5,a5,1
    10000100:	cfe1                	beqz	a5,100001d8 <main+0x18a>
    10000102:	00000717          	auipc	a4,0x0
    10000106:	00000797          	auipc	a5,0x0
    1000010a:	12e73683          	ld	a3,302(a4) # 10000230 <main+0x1e2>
    1000010e:	1327b703          	ld	a4,306(a5) # 10000238 <main+0x1ea>
    10000112:	57fd                	li	a5,-1
    10000114:	1782                	slli	a5,a5,0x20
    10000116:	03005637          	lui	a2,0x3005
    1000011a:	ec3a                	sd	a4,24(sp)
    1000011c:	e43e                	sd	a5,8(sp)
    1000011e:	e836                	sd	a3,16(sp)
    10000120:	02060613          	addi	a2,a2,32 # 3005020 <__base_gpio+0x20>
    10000124:	0038                	addi	a4,sp,8
    10000126:	4781                	li	a5,0
    10000128:	4519                	li	a0,6
    1000012a:	4314                	lw	a3,0(a4)
    1000012c:	0711                	addi	a4,a4,4
    1000012e:	c214                	sw	a3,0(a2)
    10000130:	420c                	lw	a1,0(a2)
    10000132:	0ab69c63          	bne	a3,a1,100001ea <main+0x19c>
    10000136:	2785                	addiw	a5,a5,1
    10000138:	fea799e3          	bne	a5,a0,1000012a <main+0xdc>
    1000013c:	4705                	li	a4,1
    1000013e:	077e                	slli	a4,a4,0x1f
    10000140:	cafe05b7          	lui	a1,0xcafe0
    10000144:	c30c                	sw	a1,0(a4)
    10000146:	00158813          	addi	a6,a1,1 # ffffffffcafe0001 <__base_dram+0xffffffff4afe0001>
    1000014a:	01072223          	sw	a6,4(a4)
    1000014e:	00258513          	addi	a0,a1,2
    10000152:	c708                	sw	a0,8(a4)
    10000154:	00358813          	addi	a6,a1,3
    10000158:	01072623          	sw	a6,12(a4)
    1000015c:	00458513          	addi	a0,a1,4
    10000160:	cb08                	sw	a0,16(a4)
    10000162:	00558813          	addi	a6,a1,5
    10000166:	01072a23          	sw	a6,20(a4)
    1000016a:	00658513          	addi	a0,a1,6
    1000016e:	cf08                	sw	a0,24(a4)
    10000170:	00758693          	addi	a3,a1,7
    10000174:	cf54                	sw	a3,28(a4)
    10000176:	0ff0000f          	fence
    1000017a:	4781                	li	a5,0
    1000017c:	4521                	li	a0,8
    1000017e:	4310                	lw	a2,0(a4)
    10000180:	00b786bb          	addw	a3,a5,a1
    10000184:	0711                	addi	a4,a4,4
    10000186:	06c69863          	bne	a3,a2,100001f6 <main+0x1a8>
    1000018a:	2785                	addiw	a5,a5,1
    1000018c:	fea799e3          	bne	a5,a0,1000017e <main+0x130>
    10000190:	67b9                	lui	a5,0xe
    10000192:	03005737          	lui	a4,0x3005
    10000196:	ead78793          	addi	a5,a5,-339 # dead <__base_clint-0x2032153>
    1000019a:	d31c                	sw	a5,32(a4)
    1000019c:	02070713          	addi	a4,a4,32 # 3005020 <__base_gpio+0x20>
    100001a0:	4318                	lw	a4,0(a4)
    100001a2:	04f71763          	bne	a4,a5,100001f0 <main+0x1a2>
    100001a6:	030027b7          	lui	a5,0x3002
    100001aa:	04200713          	li	a4,66
    100001ae:	cfd8                	sw	a4,28(a5)
    100001b0:	07f1                	addi	a5,a5,28 # 300201c <__base_uart+0x1c>
    100001b2:	439c                	lw	a5,0(a5)
    100001b4:	0ff7f793          	zext.b	a5,a5
    100001b8:	04e79263          	bne	a5,a4,100001fc <main+0x1ae>
    100001bc:	030047b7          	lui	a5,0x3004
    100001c0:	0207a223          	sw	zero,36(a5) # 3004024 <__base_spih+0x24>
    100001c4:	02478793          	addi	a5,a5,36
    100001c8:	439c                	lw	a5,0(a5)
    100001ca:	8b85                	andi	a5,a5,1
    100001cc:	eb9d                	bnez	a5,10000202 <main+0x1b4>
    100001ce:	030037b7          	lui	a5,0x3003
    100001d2:	07d1                	addi	a5,a5,20 # 3003014 <__base_i2c+0x14>
    100001d4:	439c                	lw	a5,0(a5)
    100001d6:	4501                	li	a0,0
    100001d8:	6145                	addi	sp,sp,48
    100001da:	8082                	ret
    100001dc:	03200513          	li	a0,50
    100001e0:	8082                	ret
    100001e2:	2529                	addiw	a0,a0,10
    100001e4:	8082                	ret
    100001e6:	2579                	addiw	a0,a0,30
    100001e8:	8082                	ret
    100001ea:	0467851b          	addiw	a0,a5,70
    100001ee:	b7ed                	j	100001d8 <main+0x18a>
    100001f0:	06e00513          	li	a0,110
    100001f4:	b7d5                	j	100001d8 <main+0x18a>
    100001f6:	05a7851b          	addiw	a0,a5,90
    100001fa:	bff9                	j	100001d8 <main+0x18a>
    100001fc:	06f00513          	li	a0,111
    10000200:	bfe1                	j	100001d8 <main+0x18a>
    10000202:	07000513          	li	a0,112
    10000206:	bfc9                	j	100001d8 <main+0x18a>
