
/home/tutel/SOC_UVM/verif/sw/build/test_gpio_deep.elf:     elf64-littleriscv dosya biçemi

SYMBOL TABLE:
0000000010000000 l    d  .text	0000000000000000 .text
0000000000000000 l    d  .riscv.attributes	0000000000000000 .riscv.attributes
0000000000000000 l    d  .comment	0000000000000000 .comment
0000000000000000 l    df *ABS*	0000000000000000 cc3vSTxD.o
0000000000000000 l    df *ABS*	0000000000000000 test_gpio_deep.c
0000000010000000 g       *ABS*	0000000000000000 __base_spm
0000000003004000 g       *ABS*	0000000000000000 __base_spih
0000000003007000 g       *ABS*	0000000000000000 __base_vga
0000000010000a30 g       .text	0000000000000000 __global_pointer
0000000003000000 g       *ABS*	0000000000000000 __base_regs
0000000080000000 g       *ABS*	0000000000000000 __base_dram
0000000010000230 g       .text	0000000000000000 __bss_end
0000000010000230 g       .text	0000000000000000 __stack_start
0000000003005000 g       *ABS*	0000000000000000 __base_gpio
0000000003006000 g       *ABS*	0000000000000000 __base_slink
0000000010000000 g     F .text	000000000000004e _start
0000000004000000 g       *ABS*	0000000000000000 __base_plic
0000000002040000 g       *ABS*	0000000000000000 __base_clint
0000000003001000 g       *ABS*	0000000000000000 __base_llc
0000000003003000 g       *ABS*	0000000000000000 __base_i2c
0000000010000230 g       .text	0000000000000000 __bss_start
000000001000004e g     F .text	00000000000001de main
0000000003002000 g       *ABS*	0000000000000000 __base_uart
0000000003008000 g       *ABS*	0000000000000000 __base_usb
000000001000fff0 g       .text	0000000000000000 __stack_pointer
0000000010000038 g     F .text	0000000000000000 _exit



Disassembly of section .text:

0000000010000000 <_start>:
    10000000:	30047073          	csrci	mstatus,8
    10000004:	00010117          	auipc	sp,0x10
    10000008:	fec10113          	addi	sp,sp,-20 # 1000fff0 <__stack_pointer>
    1000000c:	00001197          	auipc	gp,0x1
    10000010:	a2418193          	addi	gp,gp,-1500 # 10000a30 <__global_pointer>
    10000014:	00000297          	auipc	t0,0x0
    10000018:	21c28293          	addi	t0,t0,540 # 10000230 <__bss_end>
    1000001c:	00000317          	auipc	t1,0x0
    10000020:	21430313          	addi	t1,t1,532 # 10000230 <__bss_end>
    10000024:	0062d663          	bge	t0,t1,10000030 <_start+0x30>
    10000028:	0002b023          	sd	zero,0(t0)
    1000002c:	02a1                	addi	t0,t0,8
    1000002e:	bfdd                	j	10000024 <_start+0x24>
    10000030:	0ff0000f          	fence
    10000034:	01a000ef          	jal	1000004e <main>

0000000010000038 <_exit>:
    10000038:	00151293          	slli	t0,a0,0x1
    1000003c:	0012e293          	ori	t0,t0,1
    10000040:	03000337          	lui	t1,0x3000
    10000044:	00532423          	sw	t0,8(t1) # 3000008 <__base_regs+0x8>
    10000048:	10500073          	wfi
    1000004c:	bff5                	j	10000048 <_exit+0x10>

000000001000004e <main>:
    1000004e:	030057b7          	lui	a5,0x3005
    10000052:	577d                	li	a4,-1
    10000054:	d398                	sw	a4,32(a5)
    10000056:	030057b7          	lui	a5,0x3005
    1000005a:	07d1                	addi	a5,a5,20 # 3005014 <__base_gpio+0x14>
    1000005c:	0007a023          	sw	zero,0(a5)
    10000060:	0ff0000f          	fence
    10000064:	4501                	li	a0,0
    10000066:	4605                	li	a2,1
    10000068:	02000593          	li	a1,32
    1000006c:	00a6173b          	sllw	a4,a2,a0
    10000070:	c398                	sw	a4,0(a5)
    10000072:	0ff0000f          	fence
    10000076:	4394                	lw	a3,0(a5)
    10000078:	18d71063          	bne	a4,a3,100001f8 <main+0x1aa>
    1000007c:	2521                	addiw	a0,a0,8
    1000007e:	feb517e3          	bne	a0,a1,1000006c <main+0x1e>
    10000082:	80000737          	lui	a4,0x80000
    10000086:	c398                	sw	a4,0(a5)
    10000088:	0ff0000f          	fence
    1000008c:	4394                	lw	a3,0(a5)
    1000008e:	02800513          	li	a0,40
    10000092:	14e69c63          	bne	a3,a4,100001ea <main+0x19c>
    10000096:	577d                	li	a4,-1
    10000098:	c398                	sw	a4,0(a5)
    1000009a:	0ff0000f          	fence
    1000009e:	4394                	lw	a3,0(a5)
    100000a0:	14e69663          	bne	a3,a4,100001ec <main+0x19e>
    100000a4:	0007a023          	sw	zero,0(a5)
    100000a8:	0007a023          	sw	zero,0(a5)
    100000ac:	0ff0000f          	fence
    100000b0:	00ff06b7          	lui	a3,0xff0
    100000b4:	03005737          	lui	a4,0x3005
    100000b8:	0ab68693          	addi	a3,a3,171 # ff00ab <__base_clint-0x104ff55>
    100000bc:	cf14                	sw	a3,24(a4)
    100000be:	0ff0000f          	fence
    100000c2:	4398                	lw	a4,0(a5)
    100000c4:	0ab00693          	li	a3,171
    100000c8:	0ff77713          	zext.b	a4,a4
    100000cc:	12d71863          	bne	a4,a3,100001fc <main+0x1ae>
    100000d0:	00ff06b7          	lui	a3,0xff0
    100000d4:	03005737          	lui	a4,0x3005
    100000d8:	0cd68693          	addi	a3,a3,205 # ff00cd <__base_clint-0x104ff33>
    100000dc:	cf54                	sw	a3,28(a4)
    100000de:	0ff0000f          	fence
    100000e2:	4398                	lw	a4,0(a5)
    100000e4:	00ff06b7          	lui	a3,0xff0
    100000e8:	0ff68693          	addi	a3,a3,255 # ff00ff <__base_clint-0x104ff01>
    100000ec:	00cd07b7          	lui	a5,0xcd0
    100000f0:	8f75                	and	a4,a4,a3
    100000f2:	0ab78793          	addi	a5,a5,171 # cd00ab <__base_clint-0x136ff55>
    100000f6:	10f71663          	bne	a4,a5,10000202 <main+0x1b4>
    100000fa:	030057b7          	lui	a5,0x3005
    100000fe:	02c78793          	addi	a5,a5,44 # 300502c <__base_gpio+0x2c>
    10000102:	48bd                	li	a7,15
    10000104:	03005737          	lui	a4,0x3005
    10000108:	0117a023          	sw	a7,0(a5)
    1000010c:	03070713          	addi	a4,a4,48 # 3005030 <__base_gpio+0x30>
    10000110:	0f000313          	li	t1,240
    10000114:	03005637          	lui	a2,0x3005
    10000118:	6685                	lui	a3,0x1
    1000011a:	00672023          	sw	t1,0(a4)
    1000011e:	03460613          	addi	a2,a2,52 # 3005034 <__base_gpio+0x34>
    10000122:	f0068693          	addi	a3,a3,-256 # f00 <__base_clint-0x203f100>
    10000126:	030055b7          	lui	a1,0x3005
    1000012a:	c214                	sw	a3,0(a2)
    1000012c:	03858593          	addi	a1,a1,56 # 3005038 <__base_gpio+0x38>
    10000130:	6e3d                	lui	t3,0xf
    10000132:	03005537          	lui	a0,0x3005
    10000136:	6841                	lui	a6,0x10
    10000138:	01c5a023          	sw	t3,0(a1)
    1000013c:	0511                	addi	a0,a0,4 # 3005004 <__base_gpio+0x4>
    1000013e:	187d                	addi	a6,a6,-1 # ffff <__base_clint-0x2030001>
    10000140:	01052023          	sw	a6,0(a0)
    10000144:	0ff0000f          	fence
    10000148:	439c                	lw	a5,0(a5)
    1000014a:	0b179463          	bne	a5,a7,100001f2 <main+0x1a4>
    1000014e:	431c                	lw	a5,0(a4)
    10000150:	0a679c63          	bne	a5,t1,10000208 <main+0x1ba>
    10000154:	421c                	lw	a5,0(a2)
    10000156:	0cd79263          	bne	a5,a3,1000021a <main+0x1cc>
    1000015a:	419c                	lw	a5,0(a1)
    1000015c:	0bc79963          	bne	a5,t3,1000020e <main+0x1c0>
    10000160:	030057b7          	lui	a5,0x3005
    10000164:	4705                	li	a4,1
    10000166:	c798                	sw	a4,8(a5)
    10000168:	03005737          	lui	a4,0x3005
    1000016c:	0ff0000f          	fence
    10000170:	431c                	lw	a5,0(a4)
    10000172:	0017f693          	andi	a3,a5,1
    10000176:	2781                	sext.w	a5,a5
    10000178:	c6c5                	beqz	a3,10000220 <main+0x1d2>
    1000017a:	c31c                	sw	a5,0(a4)
    1000017c:	0ff0000f          	fence
    10000180:	431c                	lw	a5,0(a4)
    10000182:	8b85                	andi	a5,a5,1
    10000184:	e3cd                	bnez	a5,10000226 <main+0x1d8>
    10000186:	00052023          	sw	zero,0(a0)
    1000018a:	02072623          	sw	zero,44(a4) # 300502c <__base_gpio+0x2c>
    1000018e:	02072823          	sw	zero,48(a4)
    10000192:	00062023          	sw	zero,0(a2)
    10000196:	0005a023          	sw	zero,0(a1)
    1000019a:	02070793          	addi	a5,a4,32
    1000019e:	0007a023          	sw	zero,0(a5) # 3005000 <__base_gpio>
    100001a2:	0ff0000f          	fence
    100001a6:	000f06b7          	lui	a3,0xf0
    100001aa:	96c6                	add	a3,a3,a7
    100001ac:	d354                	sw	a3,36(a4)
    100001ae:	0ff0000f          	fence
    100001b2:	4394                	lw	a3,0(a5)
    100001b4:	07169063          	bne	a3,a7,10000214 <main+0x1c6>
    100001b8:	ff0106b7          	lui	a3,0xff010
    100001bc:	03005737          	lui	a4,0x3005
    100001c0:	f0068693          	addi	a3,a3,-256 # ffffffffff00ff00 <__base_dram+0xffffffff7f00ff00>
    100001c4:	d714                	sw	a3,40(a4)
    100001c6:	0ff0000f          	fence
    100001ca:	4394                	lw	a3,0(a5)
    100001cc:	ff000737          	lui	a4,0xff000
    100001d0:	9746                	add	a4,a4,a7
    100001d2:	00e69a63          	bne	a3,a4,100001e6 <main+0x198>
    100001d6:	03005737          	lui	a4,0x3005
    100001da:	0007a023          	sw	zero,0(a5)
    100001de:	00072a23          	sw	zero,20(a4) # 3005014 <__base_gpio+0x14>
    100001e2:	4501                	li	a0,0
    100001e4:	8082                	ret
    100001e6:	04700513          	li	a0,71
    100001ea:	8082                	ret
    100001ec:	02900513          	li	a0,41
    100001f0:	8082                	ret
    100001f2:	03c00513          	li	a0,60
    100001f6:	8082                	ret
    100001f8:	2505                	addiw	a0,a0,1
    100001fa:	8082                	ret
    100001fc:	03200513          	li	a0,50
    10000200:	8082                	ret
    10000202:	03300513          	li	a0,51
    10000206:	8082                	ret
    10000208:	03d00513          	li	a0,61
    1000020c:	8082                	ret
    1000020e:	03f00513          	li	a0,63
    10000212:	8082                	ret
    10000214:	04600513          	li	a0,70
    10000218:	8082                	ret
    1000021a:	03e00513          	li	a0,62
    1000021e:	8082                	ret
    10000220:	04000513          	li	a0,64
    10000224:	8082                	ret
    10000226:	04100513          	li	a0,65
    1000022a:	8082                	ret
