
/home/tutel/SOC_UVM/verif/sw/build/test_spi_host_regs.elf:     elf64-littleriscv dosya biçemi

SYMBOL TABLE:
0000000010000000 l    d  .text	0000000000000000 .text
0000000000000000 l    d  .riscv.attributes	0000000000000000 .riscv.attributes
0000000000000000 l    d  .comment	0000000000000000 .comment
0000000000000000 l    df *ABS*	0000000000000000 ccvSqp6S.o
0000000000000000 l    df *ABS*	0000000000000000 test_spi_host_regs.c
0000000010000000 g       *ABS*	0000000000000000 __base_spm
0000000003004000 g       *ABS*	0000000000000000 __base_spih
0000000003007000 g       *ABS*	0000000000000000 __base_vga
0000000010000918 g       .text	0000000000000000 __global_pointer
0000000003000000 g       *ABS*	0000000000000000 __base_regs
0000000080000000 g       *ABS*	0000000000000000 __base_dram
0000000010000118 g       .text	0000000000000000 __bss_end
0000000010000120 g       .text	0000000000000000 __stack_start
0000000003005000 g       *ABS*	0000000000000000 __base_gpio
0000000003006000 g       *ABS*	0000000000000000 __base_slink
0000000010000000 g     F .text	000000000000004e _start
0000000004000000 g       *ABS*	0000000000000000 __base_plic
0000000002040000 g       *ABS*	0000000000000000 __base_clint
0000000003001000 g       *ABS*	0000000000000000 __base_llc
0000000003003000 g       *ABS*	0000000000000000 __base_i2c
0000000010000118 g       .text	0000000000000000 __bss_start
000000001000004e g     F .text	00000000000000ca main
0000000003002000 g       *ABS*	0000000000000000 __base_uart
0000000003008000 g       *ABS*	0000000000000000 __base_usb
000000001000fff0 g       .text	0000000000000000 __stack_pointer
0000000010000038 g     F .text	0000000000000000 _exit



Disassembly of section .text:

0000000010000000 <_start>:
    10000000:	30047073          	csrci	mstatus,8
    10000004:	00010117          	auipc	sp,0x10
    10000008:	fec10113          	addi	sp,sp,-20 # 1000fff0 <__stack_pointer>
    1000000c:	00001197          	auipc	gp,0x1
    10000010:	90c18193          	addi	gp,gp,-1780 # 10000918 <__global_pointer>
    10000014:	00000297          	auipc	t0,0x0
    10000018:	10428293          	addi	t0,t0,260 # 10000118 <__bss_end>
    1000001c:	00000317          	auipc	t1,0x0
    10000020:	0fc30313          	addi	t1,t1,252 # 10000118 <__bss_end>
    10000024:	0062d663          	bge	t0,t1,10000030 <_start+0x30>
    10000028:	0002b023          	sd	zero,0(t0)
    1000002c:	02a1                	addi	t0,t0,8
    1000002e:	bfdd                	j	10000024 <_start+0x24>
    10000030:	0ff0000f          	fence
    10000034:	01a000ef          	jal	1000004e <main>

0000000010000038 <_exit>:
    10000038:	00151293          	slli	t0,a0,0x1
    1000003c:	0012e293          	ori	t0,t0,1
    10000040:	03000337          	lui	t1,0x3000
    10000044:	00532423          	sw	t0,8(t1) # 3000008 <__base_regs+0x8>
    10000048:	10500073          	wfi
    1000004c:	bff5                	j	10000048 <_exit+0x10>

000000001000004e <main>:
    1000004e:	030047b7          	lui	a5,0x3004
    10000052:	40000737          	lui	a4,0x40000
    10000056:	cb98                	sw	a4,16(a5)
    10000058:	04440637          	lui	a2,0x4440
    1000005c:	0007a823          	sw	zero,16(a5) # 3004010 <__base_spih+0x10>
    10000060:	0661                	addi	a2,a2,24 # 4440018 <__base_plic+0x440018>
    10000062:	cf90                	sw	a2,24(a5)
    10000064:	0207a223          	sw	zero,36(a5)
    10000068:	467d                	li	a2,31
    1000006a:	dbd0                	sw	a2,52(a5)
    1000006c:	0207ae23          	sw	zero,60(a5)
    10000070:	a0000737          	lui	a4,0xa0000
    10000074:	cb98                	sw	a4,16(a5)
    10000076:	0ff0000f          	fence
    1000007a:	67e1                	lui	a5,0x18
    1000007c:	030046b7          	lui	a3,0x3004
    10000080:	6a078793          	addi	a5,a5,1696 # 186a0 <__base_clint-0x2027960>
    10000084:	06d1                	addi	a3,a3,20 # 3004014 <__base_spih+0x14>
    10000086:	4298                	lw	a4,0(a3)
    10000088:	37fd                	addiw	a5,a5,-1
    1000008a:	00074563          	bltz	a4,10000094 <main+0x46>
    1000008e:	ffe5                	bnez	a5,10000086 <main+0x38>
    10000090:	4505                	li	a0,1
    10000092:	8082                	ret
    10000094:	030047b7          	lui	a5,0x3004
    10000098:	0a500713          	li	a4,165
    1000009c:	db98                	sw	a4,48(a5)
    1000009e:	6709                	lui	a4,0x2
    100000a0:	030047b7          	lui	a5,0x3004
    100000a4:	d798                	sw	a4,40(a5)
    100000a6:	030046b7          	lui	a3,0x3004
    100000aa:	00031737          	lui	a4,0x31
    100000ae:	d4070713          	addi	a4,a4,-704 # 30d40 <__base_clint-0x200f2c0>
    100000b2:	06d1                	addi	a3,a3,20 # 3004014 <__base_spih+0x14>
    100000b4:	40000637          	lui	a2,0x40000
    100000b8:	429c                	lw	a5,0(a3)
    100000ba:	377d                	addiw	a4,a4,-1
    100000bc:	8ff1                	and	a5,a5,a2
    100000be:	c781                	beqz	a5,100000c6 <main+0x78>
    100000c0:	ff65                	bnez	a4,100000b8 <main+0x6a>
    100000c2:	4509                	li	a0,2
    100000c4:	8082                	ret
    100000c6:	efbeb737          	lui	a4,0xefbeb
    100000ca:	030047b7          	lui	a5,0x3004
    100000ce:	dde70713          	addi	a4,a4,-546 # ffffffffefbeadde <__base_dram+0xffffffff6fbeadde>
    100000d2:	db98                	sw	a4,48(a5)
    100000d4:	6709                	lui	a4,0x2
    100000d6:	070d                	addi	a4,a4,3 # 2003 <__base_clint-0x203dffd>
    100000d8:	030047b7          	lui	a5,0x3004
    100000dc:	d798                	sw	a4,40(a5)
    100000de:	030046b7          	lui	a3,0x3004
    100000e2:	00049737          	lui	a4,0x49
    100000e6:	3e070713          	addi	a4,a4,992 # 493e0 <__base_clint-0x1ff6c20>
    100000ea:	06d1                	addi	a3,a3,20 # 3004014 <__base_spih+0x14>
    100000ec:	40000637          	lui	a2,0x40000
    100000f0:	429c                	lw	a5,0(a3)
    100000f2:	377d                	addiw	a4,a4,-1
    100000f4:	8ff1                	and	a5,a5,a2
    100000f6:	c781                	beqz	a5,100000fe <main+0xb0>
    100000f8:	ff65                	bnez	a4,100000f0 <main+0xa2>
    100000fa:	450d                	li	a0,3
    100000fc:	8082                	ret
    100000fe:	030047b7          	lui	a5,0x3004
    10000102:	5f98                	lw	a4,56(a5)
    10000104:	03878793          	addi	a5,a5,56 # 3004038 <__base_spih+0x38>
    10000108:	0007069b          	sext.w	a3,a4
    1000010c:	e319                	bnez	a4,10000112 <main+0xc4>
    1000010e:	4501                	li	a0,0
    10000110:	8082                	ret
    10000112:	c394                	sw	a3,0(a5)
    10000114:	4511                	li	a0,4
    10000116:	8082                	ret
