
/home/tutel/SOC_UVM/verif/sw/build/test_uart_regs.elf:     elf64-littleriscv dosya biçemi

SYMBOL TABLE:
0000000010000000 l    d  .text	0000000000000000 .text
0000000000000000 l    d  .riscv.attributes	0000000000000000 .riscv.attributes
0000000000000000 l    d  .comment	0000000000000000 .comment
0000000000000000 l    df *ABS*	0000000000000000 cclS5YvB.o
0000000000000000 l    df *ABS*	0000000000000000 test_uart_regs.c
0000000010000000 g       *ABS*	0000000000000000 __base_spm
0000000003004000 g       *ABS*	0000000000000000 __base_spih
0000000003007000 g       *ABS*	0000000000000000 __base_vga
0000000010000a20 g       .text	0000000000000000 __global_pointer
0000000003000000 g       *ABS*	0000000000000000 __base_regs
0000000080000000 g       *ABS*	0000000000000000 __base_dram
0000000010000220 g       .text	0000000000000000 __bss_end
0000000010000220 g       .text	0000000000000000 __stack_start
0000000003005000 g       *ABS*	0000000000000000 __base_gpio
0000000003006000 g       *ABS*	0000000000000000 __base_slink
0000000010000000 g     F .text	000000000000004e _start
0000000004000000 g       *ABS*	0000000000000000 __base_plic
0000000002040000 g       *ABS*	0000000000000000 __base_clint
0000000003001000 g       *ABS*	0000000000000000 __base_llc
0000000003003000 g       *ABS*	0000000000000000 __base_i2c
0000000010000220 g       .text	0000000000000000 __bss_start
000000001000004e g     F .text	00000000000001cc main
0000000003002000 g       *ABS*	0000000000000000 __base_uart
0000000003008000 g       *ABS*	0000000000000000 __base_usb
000000001000fff0 g       .text	0000000000000000 __stack_pointer
0000000010000038 g     F .text	0000000000000000 _exit



Disassembly of section .text:

0000000010000000 <_start>:
    10000000:	30047073          	csrci	mstatus,8
    10000004:	00010117          	auipc	sp,0x10
    10000008:	fec10113          	addi	sp,sp,-20 # 1000fff0 <__stack_pointer>
    1000000c:	00001197          	auipc	gp,0x1
    10000010:	a1418193          	addi	gp,gp,-1516 # 10000a20 <__global_pointer>
    10000014:	00000297          	auipc	t0,0x0
    10000018:	20c28293          	addi	t0,t0,524 # 10000220 <__bss_end>
    1000001c:	00000317          	auipc	t1,0x0
    10000020:	20430313          	addi	t1,t1,516 # 10000220 <__bss_end>
    10000024:	0062d663          	bge	t0,t1,10000030 <_start+0x30>
    10000028:	0002b023          	sd	zero,0(t0)
    1000002c:	02a1                	addi	t0,t0,8
    1000002e:	bfdd                	j	10000024 <_start+0x24>
    10000030:	0ff0000f          	fence
    10000034:	01a000ef          	jal	1000004e <main>

0000000010000038 <_exit>:
    10000038:	00151293          	slli	t0,a0,0x1
    1000003c:	0012e293          	ori	t0,t0,1
    10000040:	03000337          	lui	t1,0x3000
    10000044:	00532423          	sw	t0,8(t1) # 3000008 <__base_regs+0x8>
    10000048:	10500073          	wfi
    1000004c:	bff5                	j	10000048 <_exit+0x10>

000000001000004e <main>:
    1000004e:	030027b7          	lui	a5,0x3002
    10000052:	07b1                	addi	a5,a5,12 # 300200c <__base_uart+0xc>
    10000054:	468d                	li	a3,3
    10000056:	c394                	sw	a3,0(a5)
    10000058:	03002637          	lui	a2,0x3002
    1000005c:	0ff0000f          	fence
    10000060:	4398                	lw	a4,0(a5)
    10000062:	4505                	li	a0,1
    10000064:	0ff77713          	zext.b	a4,a4
    10000068:	1ad71463          	bne	a4,a3,10000210 <main+0x1c2>
    1000006c:	08300593          	li	a1,131
    10000070:	c38c                	sw	a1,0(a5)
    10000072:	0ff0000f          	fence
    10000076:	4394                	lw	a3,0(a5)
    10000078:	0ff6f693          	zext.b	a3,a3
    1000007c:	18b69b63          	bne	a3,a1,10000212 <main+0x1c4>
    10000080:	45ed                	li	a1,27
    10000082:	c20c                	sw	a1,0(a2)
    10000084:	00062223          	sw	zero,4(a2) # 3002004 <__base_uart+0x4>
    10000088:	0ff0000f          	fence
    1000008c:	4214                	lw	a3,0(a2)
    1000008e:	0ff6f693          	zext.b	a3,a3
    10000092:	18b69263          	bne	a3,a1,10000216 <main+0x1c8>
    10000096:	c398                	sw	a4,0(a5)
    10000098:	0ff0000f          	fence
    1000009c:	030007b7          	lui	a5,0x3000
    100000a0:	4bd8                	lw	a4,20(a5)
    100000a2:	02faf7b7          	lui	a5,0x2faf
    100000a6:	08078793          	addi	a5,a5,128 # 2faf080 <__base_clint+0xf6f080>
    100000aa:	c709                	beqz	a4,100000b4 <main+0x66>
    100000ac:	5f600793          	li	a5,1526
    100000b0:	02e787bb          	mulw	a5,a5,a4
    100000b4:	001c2737          	lui	a4,0x1c2
    100000b8:	03002637          	lui	a2,0x3002
    100000bc:	00062223          	sw	zero,4(a2) # 3002004 <__base_uart+0x4>
    100000c0:	08000593          	li	a1,128
    100000c4:	c64c                	sw	a1,12(a2)
    100000c6:	488d                	li	a7,3
    100000c8:	481d                	li	a6,7
    100000ca:	8532                	mv	a0,a2
    100000cc:	02e7d7bb          	divuw	a5,a5,a4
    100000d0:	01460713          	addi	a4,a2,20
    100000d4:	0ff7f313          	zext.b	t1,a5
    100000d8:	00662023          	sw	t1,0(a2)
    100000dc:	0087d79b          	srliw	a5,a5,0x8
    100000e0:	c25c                	sw	a5,4(a2)
    100000e2:	01162623          	sw	a7,12(a2)
    100000e6:	01062423          	sw	a6,8(a2)
    100000ea:	431c                	lw	a5,0(a4)
    100000ec:	0207f793          	andi	a5,a5,32
    100000f0:	10078f63          	beqz	a5,1000020e <main+0x1c0>
    100000f4:	431c                	lw	a5,0(a4)
    100000f6:	0207f793          	andi	a5,a5,32
    100000fa:	dfed                	beqz	a5,100000f4 <main+0xa6>
    100000fc:	05500793          	li	a5,85
    10000100:	03002737          	lui	a4,0x3002
    10000104:	c11c                	sw	a5,0(a0)
    10000106:	0751                	addi	a4,a4,20 # 3002014 <__base_uart+0x14>
    10000108:	030026b7          	lui	a3,0x3002
    1000010c:	431c                	lw	a5,0(a4)
    1000010e:	0207f793          	andi	a5,a5,32
    10000112:	dfed                	beqz	a5,1000010c <main+0xbe>
    10000114:	04100793          	li	a5,65
    10000118:	03002737          	lui	a4,0x3002
    1000011c:	c29c                	sw	a5,0(a3)
    1000011e:	0751                	addi	a4,a4,20 # 3002014 <__base_uart+0x14>
    10000120:	030026b7          	lui	a3,0x3002
    10000124:	431c                	lw	a5,0(a4)
    10000126:	0207f793          	andi	a5,a5,32
    1000012a:	dfed                	beqz	a5,10000124 <main+0xd6>
    1000012c:	05200793          	li	a5,82
    10000130:	03002737          	lui	a4,0x3002
    10000134:	c29c                	sw	a5,0(a3)
    10000136:	0751                	addi	a4,a4,20 # 3002014 <__base_uart+0x14>
    10000138:	030026b7          	lui	a3,0x3002
    1000013c:	431c                	lw	a5,0(a4)
    1000013e:	0207f793          	andi	a5,a5,32
    10000142:	dfed                	beqz	a5,1000013c <main+0xee>
    10000144:	05400793          	li	a5,84
    10000148:	03002737          	lui	a4,0x3002
    1000014c:	c29c                	sw	a5,0(a3)
    1000014e:	0751                	addi	a4,a4,20 # 3002014 <__base_uart+0x14>
    10000150:	030026b7          	lui	a3,0x3002
    10000154:	431c                	lw	a5,0(a4)
    10000156:	0207f793          	andi	a5,a5,32
    1000015a:	dfed                	beqz	a5,10000154 <main+0x106>
    1000015c:	47b5                	li	a5,13
    1000015e:	03002737          	lui	a4,0x3002
    10000162:	c29c                	sw	a5,0(a3)
    10000164:	0751                	addi	a4,a4,20 # 3002014 <__base_uart+0x14>
    10000166:	030026b7          	lui	a3,0x3002
    1000016a:	431c                	lw	a5,0(a4)
    1000016c:	0207f793          	andi	a5,a5,32
    10000170:	dfed                	beqz	a5,1000016a <main+0x11c>
    10000172:	47a9                	li	a5,10
    10000174:	c29c                	sw	a5,0(a3)
    10000176:	030026b7          	lui	a3,0x3002
    1000017a:	06d1                	addi	a3,a3,20 # 3002014 <__base_uart+0x14>
    1000017c:	02000713          	li	a4,32
    10000180:	030025b7          	lui	a1,0x3002
    10000184:	07f00613          	li	a2,127
    10000188:	429c                	lw	a5,0(a3)
    1000018a:	0207f793          	andi	a5,a5,32
    1000018e:	dfed                	beqz	a5,10000188 <main+0x13a>
    10000190:	c198                	sw	a4,0(a1)
    10000192:	2705                	addiw	a4,a4,1
    10000194:	fec71ae3          	bne	a4,a2,10000188 <main+0x13a>
    10000198:	03002737          	lui	a4,0x3002
    1000019c:	0751                	addi	a4,a4,20 # 3002014 <__base_uart+0x14>
    1000019e:	030026b7          	lui	a3,0x3002
    100001a2:	431c                	lw	a5,0(a4)
    100001a4:	0207f793          	andi	a5,a5,32
    100001a8:	dfed                	beqz	a5,100001a2 <main+0x154>
    100001aa:	47b5                	li	a5,13
    100001ac:	03002737          	lui	a4,0x3002
    100001b0:	c29c                	sw	a5,0(a3)
    100001b2:	0751                	addi	a4,a4,20 # 3002014 <__base_uart+0x14>
    100001b4:	030026b7          	lui	a3,0x3002
    100001b8:	431c                	lw	a5,0(a4)
    100001ba:	0207f793          	andi	a5,a5,32
    100001be:	dfed                	beqz	a5,100001b8 <main+0x16a>
    100001c0:	47a9                	li	a5,10
    100001c2:	03002737          	lui	a4,0x3002
    100001c6:	c29c                	sw	a5,0(a3)
    100001c8:	0751                	addi	a4,a4,20 # 3002014 <__base_uart+0x14>
    100001ca:	030026b7          	lui	a3,0x3002
    100001ce:	431c                	lw	a5,0(a4)
    100001d0:	0207f793          	andi	a5,a5,32
    100001d4:	dfed                	beqz	a5,100001ce <main+0x180>
    100001d6:	03002737          	lui	a4,0x3002
    100001da:	0006a023          	sw	zero,0(a3) # 3002000 <__base_uart>
    100001de:	0751                	addi	a4,a4,20 # 3002014 <__base_uart+0x14>
    100001e0:	030026b7          	lui	a3,0x3002
    100001e4:	431c                	lw	a5,0(a4)
    100001e6:	0207f793          	andi	a5,a5,32
    100001ea:	dfed                	beqz	a5,100001e4 <main+0x196>
    100001ec:	07f00793          	li	a5,127
    100001f0:	03002737          	lui	a4,0x3002
    100001f4:	c29c                	sw	a5,0(a3)
    100001f6:	0751                	addi	a4,a4,20 # 3002014 <__base_uart+0x14>
    100001f8:	030026b7          	lui	a3,0x3002
    100001fc:	431c                	lw	a5,0(a4)
    100001fe:	0207f793          	andi	a5,a5,32
    10000202:	dfed                	beqz	a5,100001fc <main+0x1ae>
    10000204:	0ff00793          	li	a5,255
    10000208:	c29c                	sw	a5,0(a3)
    1000020a:	4501                	li	a0,0
    1000020c:	8082                	ret
    1000020e:	4529                	li	a0,10
    10000210:	8082                	ret
    10000212:	4509                	li	a0,2
    10000214:	8082                	ret
    10000216:	853a                	mv	a0,a4
    10000218:	8082                	ret
