
/home/tutel/SOC_UVM/verif/sw/build/test_lvl_medium_memmap_probe.elf:     elf64-littleriscv dosya biçemi

SYMBOL TABLE:
0000000010000000 l    d  .text	0000000000000000 .text
0000000000000000 l    d  .riscv.attributes	0000000000000000 .riscv.attributes
0000000000000000 l    d  .comment	0000000000000000 .comment
0000000000000000 l    df *ABS*	0000000000000000 ccWNnnhM.o
0000000000000000 l    df *ABS*	0000000000000000 test_lvl_medium_memmap_probe.c
0000000010000000 g       *ABS*	0000000000000000 __base_spm
0000000003004000 g       *ABS*	0000000000000000 __base_spih
0000000003007000 g       *ABS*	0000000000000000 __base_vga
00000000100008e8 g       .text	0000000000000000 __global_pointer
0000000003000000 g       *ABS*	0000000000000000 __base_regs
0000000080000000 g       *ABS*	0000000000000000 __base_dram
00000000100000e8 g       .text	0000000000000000 __bss_end
00000000100000f0 g       .text	0000000000000000 __stack_start
0000000003005000 g       *ABS*	0000000000000000 __base_gpio
0000000003006000 g       *ABS*	0000000000000000 __base_slink
0000000010000000 g     F .text	000000000000004e _start
0000000004000000 g       *ABS*	0000000000000000 __base_plic
0000000002040000 g       *ABS*	0000000000000000 __base_clint
0000000003001000 g       *ABS*	0000000000000000 __base_llc
0000000003003000 g       *ABS*	0000000000000000 __base_i2c
00000000100000e8 g       .text	0000000000000000 __bss_start
000000001000004e g     F .text	0000000000000098 main
0000000003002000 g       *ABS*	0000000000000000 __base_uart
0000000003008000 g       *ABS*	0000000000000000 __base_usb
000000001000fff0 g       .text	0000000000000000 __stack_pointer
0000000010000038 g     F .text	0000000000000000 _exit



Disassembly of section .text:

0000000010000000 <_start>:
    10000000:	30047073          	csrci	mstatus,8
    10000004:	00010117          	auipc	sp,0x10
    10000008:	fec10113          	addi	sp,sp,-20 # 1000fff0 <__stack_pointer>
    1000000c:	00001197          	auipc	gp,0x1
    10000010:	8dc18193          	addi	gp,gp,-1828 # 100008e8 <__global_pointer>
    10000014:	00000297          	auipc	t0,0x0
    10000018:	0d428293          	addi	t0,t0,212 # 100000e8 <__bss_end>
    1000001c:	00000317          	auipc	t1,0x0
    10000020:	0cc30313          	addi	t1,t1,204 # 100000e8 <__bss_end>
    10000024:	0062d663          	bge	t0,t1,10000030 <_start+0x30>
    10000028:	0002b023          	sd	zero,0(t0)
    1000002c:	02a1                	addi	t0,t0,8
    1000002e:	bfdd                	j	10000024 <_start+0x24>
    10000030:	0ff0000f          	fence
    10000034:	01a000ef          	jal	1000004e <main>

0000000010000038 <_exit>:
    10000038:	00151293          	slli	t0,a0,0x1
    1000003c:	0012e293          	ori	t0,t0,1
    10000040:	03000337          	lui	t1,0x3000
    10000044:	00532423          	sw	t0,8(t1) # 3000008 <__base_regs+0x8>
    10000048:	10500073          	wfi
    1000004c:	bff5                	j	10000048 <_exit+0x10>

000000001000004e <main>:
    1000004e:	030007b7          	lui	a5,0x3000
    10000052:	10010737          	lui	a4,0x10010
    10000056:	c398                	sw	a4,0(a5)
    10000058:	00478713          	addi	a4,a5,4 # 3000004 <__base_regs+0x4>
    1000005c:	5a5aa7b7          	lui	a5,0x5a5aa
    10000060:	5a578793          	addi	a5,a5,1445 # 5a5aa5a5 <__stack_pointer+0x4a59a5b5>
    10000064:	c31c                	sw	a5,0(a4)
    10000066:	0ff0000f          	fence
    1000006a:	4318                	lw	a4,0(a4)
    1000006c:	4505                	li	a0,1
    1000006e:	06f71963          	bne	a4,a5,100000e0 <main+0x92>
    10000072:	030025b7          	lui	a1,0x3002
    10000076:	03004637          	lui	a2,0x3004
    1000007a:	030036b7          	lui	a3,0x3003
    1000007e:	03005737          	lui	a4,0x3005
    10000082:	05d1                	addi	a1,a1,20 # 3002014 <__base_uart+0x14>
    10000084:	0651                	addi	a2,a2,20 # 3004014 <__base_spih+0x14>
    10000086:	06d1                	addi	a3,a3,20 # 3003014 <__base_i2c+0x14>
    10000088:	0741                	addi	a4,a4,16 # 3005010 <__base_gpio+0x10>
    1000008a:	418c                	lw	a1,0(a1)
    1000008c:	030068b7          	lui	a7,0x3006
    10000090:	4210                	lw	a2,0(a2)
    10000092:	0204c7b7          	lui	a5,0x204c
    10000096:	4294                	lw	a3,0(a3)
    10000098:	4318                	lw	a4,0(a4)
    1000009a:	0008a703          	lw	a4,0(a7) # 3006000 <__base_slink>
    1000009e:	17e1                	addi	a5,a5,-8 # 204bff8 <__base_clint+0xbff8>
    100000a0:	02040837          	lui	a6,0x2040
    100000a4:	00082703          	lw	a4,0(a6) # 2040000 <__base_clint>
    100000a8:	04000537          	lui	a0,0x4000
    100000ac:	439c                	lw	a5,0(a5)
    100000ae:	411c                	lw	a5,0(a0)
    100000b0:	020006b7          	lui	a3,0x2000
    100000b4:	02068693          	addi	a3,a3,32 # 2000020 <__base_clint-0x3ffe0>
    100000b8:	020007b7          	lui	a5,0x2000
    100000bc:	4601                	li	a2,0
    100000be:	4398                	lw	a4,0(a5)
    100000c0:	0791                	addi	a5,a5,4 # 2000004 <__base_clint-0x3fffc>
    100000c2:	c311                	beqz	a4,100000c6 <main+0x78>
    100000c4:	2605                	addiw	a2,a2,1
    100000c6:	fed79ce3          	bne	a5,a3,100000be <main+0x70>
    100000ca:	ce01                	beqz	a2,100000e2 <main+0x94>
    100000cc:	030027b7          	lui	a5,0x3002
    100000d0:	07d1                	addi	a5,a5,20 # 3002014 <__base_uart+0x14>
    100000d2:	439c                	lw	a5,0(a5)
    100000d4:	0207f793          	andi	a5,a5,32
    100000d8:	c399                	beqz	a5,100000de <main+0x90>
    100000da:	4501                	li	a0,0
    100000dc:	8082                	ret
    100000de:	450d                	li	a0,3
    100000e0:	8082                	ret
    100000e2:	4509                	li	a0,2
    100000e4:	8082                	ret
