
/home/tutel/SOC_UVM/verif/sw/build/test_lvl_medium_interleave_rw.elf:     elf64-littleriscv dosya biçemi

SYMBOL TABLE:
0000000010000000 l    d  .text	0000000000000000 .text
0000000000000000 l    d  .riscv.attributes	0000000000000000 .riscv.attributes
0000000000000000 l    d  .comment	0000000000000000 .comment
0000000000000000 l    df *ABS*	0000000000000000 ccUwIBtK.o
0000000000000000 l    df *ABS*	0000000000000000 test_lvl_medium_interleave_rw.c
0000000010000000 g       *ABS*	0000000000000000 __base_spm
0000000003004000 g       *ABS*	0000000000000000 __base_spih
0000000003007000 g       *ABS*	0000000000000000 __base_vga
0000000010000948 g       .text	0000000000000000 __global_pointer
0000000003000000 g       *ABS*	0000000000000000 __base_regs
0000000080000000 g       *ABS*	0000000000000000 __base_dram
0000000010000148 g       .text	0000000000000000 __bss_end
0000000010000150 g       .text	0000000000000000 __stack_start
0000000003005000 g       *ABS*	0000000000000000 __base_gpio
0000000003006000 g       *ABS*	0000000000000000 __base_slink
0000000010000000 g     F .text	000000000000004e _start
0000000004000000 g       *ABS*	0000000000000000 __base_plic
0000000002040000 g       *ABS*	0000000000000000 __base_clint
0000000003001000 g       *ABS*	0000000000000000 __base_llc
0000000003003000 g       *ABS*	0000000000000000 __base_i2c
0000000010000148 g       .text	0000000000000000 __bss_start
000000001000004e g     F .text	00000000000000fa main
0000000003002000 g       *ABS*	0000000000000000 __base_uart
0000000003008000 g       *ABS*	0000000000000000 __base_usb
000000001000fff0 g       .text	0000000000000000 __stack_pointer
0000000010000038 g     F .text	0000000000000000 _exit



Disassembly of section .text:

0000000010000000 <_start>:
    10000000:	30047073          	csrci	mstatus,8
    10000004:	00010117          	auipc	sp,0x10
    10000008:	fec10113          	addi	sp,sp,-20 # 1000fff0 <__stack_pointer>
    1000000c:	00001197          	auipc	gp,0x1
    10000010:	93c18193          	addi	gp,gp,-1732 # 10000948 <__global_pointer>
    10000014:	00000297          	auipc	t0,0x0
    10000018:	13428293          	addi	t0,t0,308 # 10000148 <__bss_end>
    1000001c:	00000317          	auipc	t1,0x0
    10000020:	12c30313          	addi	t1,t1,300 # 10000148 <__bss_end>
    10000024:	0062d663          	bge	t0,t1,10000030 <_start+0x30>
    10000028:	0002b023          	sd	zero,0(t0)
    1000002c:	02a1                	addi	t0,t0,8
    1000002e:	bfdd                	j	10000024 <_start+0x24>
    10000030:	0ff0000f          	fence
    10000034:	01a000ef          	jal	1000004e <main>

0000000010000038 <_exit>:
    10000038:	00151293          	slli	t0,a0,0x1
    1000003c:	0012e293          	ori	t0,t0,1
    10000040:	03000337          	lui	t1,0x3000
    10000044:	00532423          	sw	t0,8(t1) # 3000008 <__base_regs+0x8>
    10000048:	10500073          	wfi
    1000004c:	bff5                	j	10000048 <_exit+0x10>

000000001000004e <main>:
    1000004e:	7135                	addi	sp,sp,-160
    10000050:	6741                	lui	a4,0x10
    10000052:	ed22                	sd	s0,152(sp)
    10000054:	e926                	sd	s1,144(sp)
    10000056:	e54a                	sd	s2,136(sp)
    10000058:	e14e                	sd	s3,128(sp)
    1000005a:	030057b7          	lui	a5,0x3005
    1000005e:	177d                	addi	a4,a4,-1 # ffff <__base_clint-0x2030001>
    10000060:	d398                	sw	a4,32(a5)
    10000062:	030047b7          	lui	a5,0x3004
    10000066:	0207a223          	sw	zero,36(a5) # 3004024 <__base_spih+0x24>
    1000006a:	4705                	li	a4,1
    1000006c:	030037b7          	lui	a5,0x3003
    10000070:	cb98                	sw	a4,16(a5)
    10000072:	0ff0000f          	fence
    10000076:	04001937          	lui	s2,0x4001
    1000007a:	0916                	slli	s2,s2,0x5
    1000007c:	898a                	mv	s3,sp
    1000007e:	878a                	mv	a5,sp
    10000080:	40290933          	sub	s2,s2,sp
    10000084:	00f90733          	add	a4,s2,a5
    10000088:	0007a023          	sw	zero,0(a5) # 3003000 <__base_i2c>
    1000008c:	00072023          	sw	zero,0(a4)
    10000090:	0791                	addi	a5,a5,4
    10000092:	0118                	addi	a4,sp,128
    10000094:	fee798e3          	bne	a5,a4,10000084 <main+0x36>
    10000098:	a5a562b7          	lui	t0,0xa5a56
    1000009c:	03005fb7          	lui	t6,0x3005
    100000a0:	03004f37          	lui	t5,0x3004
    100000a4:	03002eb7          	lui	t4,0x3002
    100000a8:	03004e37          	lui	t3,0x3004
    100000ac:	03003337          	lui	t1,0x3003
    100000b0:	040018b7          	lui	a7,0x4001
    100000b4:	01010837          	lui	a6,0x1010
    100000b8:	a5a28293          	addi	t0,t0,-1446 # ffffffffa5a55a5a <__base_dram+0xffffffff25a55a5a>
    100000bc:	0fd1                	addi	t6,t6,20 # 3005014 <__base_gpio+0x14>
    100000be:	024f0f13          	addi	t5,t5,36 # 3004024 <__base_spih+0x24>
    100000c2:	0ed1                	addi	t4,t4,20 # 3002014 <__base_uart+0x14>
    100000c4:	0e51                	addi	t3,t3,20 # 3004014 <__base_spih+0x14>
    100000c6:	0351                	addi	t1,t1,20 # 3003014 <__base_i2c+0x14>
    100000c8:	0896                	slli	a7,a7,0x5
    100000ca:	1018081b          	addiw	a6,a6,257 # 1010101 <__base_clint-0x102feff>
    100000ce:	4601                	li	a2,0
    100000d0:	4701                	li	a4,0
    100000d2:	03000437          	lui	s0,0x3000
    100000d6:	10000393          	li	t2,256
    100000da:	005646b3          	xor	a3,a2,t0
    100000de:	00dfa023          	sw	a3,0(t6)
    100000e2:	c014                	sw	a3,0(s0)
    100000e4:	00177793          	andi	a5,a4,1
    100000e8:	00ff2023          	sw	a5,0(t5)
    100000ec:	000ea583          	lw	a1,0(t4)
    100000f0:	01f77793          	andi	a5,a4,31
    100000f4:	000e2483          	lw	s1,0(t3)
    100000f8:	078a                	slli	a5,a5,0x2
    100000fa:	00032483          	lw	s1,0(t1)
    100000fe:	011785b3          	add	a1,a5,a7
    10000102:	978a                	add	a5,a5,sp
    10000104:	2705                	addiw	a4,a4,1
    10000106:	c194                	sw	a3,0(a1)
    10000108:	c394                	sw	a3,0(a5)
    1000010a:	0106063b          	addw	a2,a2,a6
    1000010e:	fc7716e3          	bne	a4,t2,100000da <main+0x8c>
    10000112:	0ff0000f          	fence
    10000116:	4781                	li	a5,0
    10000118:	02000613          	li	a2,32
    1000011c:	a021                	j	10000124 <main+0xd6>
    1000011e:	2785                	addiw	a5,a5,1
    10000120:	02c78263          	beq	a5,a2,10000144 <main+0xf6>
    10000124:	01298733          	add	a4,s3,s2
    10000128:	0009a683          	lw	a3,0(s3)
    1000012c:	4318                	lw	a4,0(a4)
    1000012e:	0991                	addi	s3,s3,4
    10000130:	fee687e3          	beq	a3,a4,1000011e <main+0xd0>
    10000134:	00a7851b          	addiw	a0,a5,10
    10000138:	646a                	ld	s0,152(sp)
    1000013a:	64ca                	ld	s1,144(sp)
    1000013c:	692a                	ld	s2,136(sp)
    1000013e:	698a                	ld	s3,128(sp)
    10000140:	610d                	addi	sp,sp,160
    10000142:	8082                	ret
    10000144:	4501                	li	a0,0
    10000146:	bfcd                	j	10000138 <main+0xea>
