
/home/tutel/SOC_UVM/verif/sw/build/test_lvl_hard_periph_stress_matrix.elf:     elf64-littleriscv dosya biçemi

SYMBOL TABLE:
0000000010000000 l    d  .text	0000000000000000 .text
0000000010000140 l    d  .rodata	0000000000000000 .rodata
0000000000000000 l    d  .riscv.attributes	0000000000000000 .riscv.attributes
0000000000000000 l    d  .comment	0000000000000000 .comment
0000000000000000 l    df *ABS*	0000000000000000 ccXZC3W8.o
0000000000000000 l    df *ABS*	0000000000000000 test_lvl_hard_periph_stress_matrix.c
0000000010000000 g       *ABS*	0000000000000000 __base_spm
0000000003004000 g       *ABS*	0000000000000000 __base_spih
0000000003007000 g       *ABS*	0000000000000000 __base_vga
0000000010000958 g       .rodata	0000000000000000 __global_pointer
0000000003000000 g       *ABS*	0000000000000000 __base_regs
0000000080000000 g       *ABS*	0000000000000000 __base_dram
0000000010000158 g       .rodata	0000000000000000 __bss_end
0000000010000160 g       .rodata	0000000000000000 __stack_start
0000000003005000 g       *ABS*	0000000000000000 __base_gpio
0000000003006000 g       *ABS*	0000000000000000 __base_slink
0000000010000000 g     F .text	000000000000004e _start
0000000004000000 g       *ABS*	0000000000000000 __base_plic
0000000002040000 g       *ABS*	0000000000000000 __base_clint
0000000003001000 g       *ABS*	0000000000000000 __base_llc
0000000003003000 g       *ABS*	0000000000000000 __base_i2c
0000000010000158 g       .rodata	0000000000000000 __bss_start
000000001000004e g     F .text	00000000000000ee main
0000000003002000 g       *ABS*	0000000000000000 __base_uart
0000000003008000 g       *ABS*	0000000000000000 __base_usb
000000001000fff0 g       .rodata	0000000000000000 __stack_pointer
0000000010000038 g     F .text	0000000000000000 _exit



Disassembly of section .text:

0000000010000000 <_start>:
    10000000:	30047073          	csrci	mstatus,8
    10000004:	00010117          	auipc	sp,0x10
    10000008:	fec10113          	addi	sp,sp,-20 # 1000fff0 <__stack_pointer>
    1000000c:	00001197          	auipc	gp,0x1
    10000010:	94c18193          	addi	gp,gp,-1716 # 10000958 <__global_pointer>
    10000014:	00000297          	auipc	t0,0x0
    10000018:	14428293          	addi	t0,t0,324 # 10000158 <__bss_end>
    1000001c:	00000317          	auipc	t1,0x0
    10000020:	13c30313          	addi	t1,t1,316 # 10000158 <__bss_end>
    10000024:	0062d663          	bge	t0,t1,10000030 <_start+0x30>
    10000028:	0002b023          	sd	zero,0(t0)
    1000002c:	02a1                	addi	t0,t0,8
    1000002e:	bfdd                	j	10000024 <_start+0x24>
    10000030:	0ff0000f          	fence
    10000034:	01a000ef          	jal	1000004e <main>

0000000010000038 <_exit>:
    10000038:	00151293          	slli	t0,a0,0x1
    1000003c:	0012e293          	ori	t0,t0,1
    10000040:	03000337          	lui	t1,0x3000
    10000044:	00532423          	sw	t0,8(t1) # 3000008 <__base_regs+0x8>
    10000048:	10500073          	wfi
    1000004c:	bff5                	j	10000048 <_exit+0x10>

000000001000004e <main>:
    1000004e:	00000717          	auipc	a4,0x0
    10000052:	0fa73703          	ld	a4,250(a4) # 10000148 <main+0xfa>
    10000056:	00000797          	auipc	a5,0x0
    1000005a:	0fa7b783          	ld	a5,250(a5) # 10000150 <main+0x102>
    1000005e:	00000697          	auipc	a3,0x0
    10000062:	7179                	addi	sp,sp,-48
    10000064:	0e26b683          	ld	a3,226(a3) # 10000140 <main+0xf2>
    10000068:	e83a                	sd	a4,16(sp)
    1000006a:	577d                	li	a4,-1
    1000006c:	ec3e                	sd	a5,24(sp)
    1000006e:	02071793          	slli	a5,a4,0x20
    10000072:	f422                	sd	s0,40(sp)
    10000074:	e03e                	sd	a5,0(sp)
    10000076:	e436                	sd	a3,8(sp)
    10000078:	030057b7          	lui	a5,0x3005
    1000007c:	d398                	sw	a4,32(a5)
    1000007e:	030055b7          	lui	a1,0x3005
    10000082:	030037b7          	lui	a5,0x3003
    10000086:	4705                	li	a4,1
    10000088:	03004637          	lui	a2,0x3004
    1000008c:	03004eb7          	lui	t4,0x3004
    10000090:	03002e37          	lui	t3,0x3002
    10000094:	03002337          	lui	t1,0x3002
    10000098:	030038b7          	lui	a7,0x3003
    1000009c:	cb98                	sw	a4,16(a5)
    1000009e:	05d1                	addi	a1,a1,20 # 3005014 <__base_gpio+0x14>
    100000a0:	02460613          	addi	a2,a2,36 # 3004024 <__base_spih+0x24>
    100000a4:	034e8e93          	addi	t4,t4,52 # 3004034 <__base_spih+0x34>
    100000a8:	0e71                	addi	t3,t3,28 # 300201c <__base_uart+0x1c>
    100000aa:	0351                	addi	t1,t1,20 # 3002014 <__base_uart+0x14>
    100000ac:	08d1                	addi	a7,a7,20 # 3003014 <__base_i2c+0x14>
    100000ae:	8f8a                	mv	t6,sp
    100000b0:	4f01                	li	t5,0
    100000b2:	4401                	li	s0,0
    100000b4:	100282b7          	lui	t0,0x10028
    100000b8:	04000393          	li	t2,64
    100000bc:	4501                	li	a0,0
    100000be:	a821                	j	100000d6 <main+0x88>
    100000c0:	4194                	lw	a3,0(a1)
    100000c2:	0006881b          	sext.w	a6,a3
    100000c6:	04e69d63          	bne	a3,a4,10000120 <main+0xd2>
    100000ca:	439c                	lw	a5,0(a5)
    100000cc:	05079c63          	bne	a5,a6,10000124 <main+0xd6>
    100000d0:	2505                	addiw	a0,a0,1
    100000d2:	04750c63          	beq	a0,t2,1000012a <main+0xdc>
    100000d6:	000fa703          	lw	a4,0(t6)
    100000da:	00157693          	andi	a3,a0,1
    100000de:	00af07bb          	addw	a5,t5,a0
    100000e2:	8f29                	xor	a4,a4,a0
    100000e4:	c198                	sw	a4,0(a1)
    100000e6:	c214                	sw	a3,0(a2)
    100000e8:	00f57693          	andi	a3,a0,15
    100000ec:	00dea023          	sw	a3,0(t4)
    100000f0:	0ff77813          	zext.b	a6,a4
    100000f4:	03f7f793          	andi	a5,a5,63
    100000f8:	010e2023          	sw	a6,0(t3)
    100000fc:	078a                	slli	a5,a5,0x2
    100000fe:	00032683          	lw	a3,0(t1)
    10000102:	9796                	add	a5,a5,t0
    10000104:	0008a683          	lw	a3,0(a7)
    10000108:	c398                	sw	a4,0(a5)
    1000010a:	0ff0000f          	fence
    1000010e:	4214                	lw	a3,0(a2)
    10000110:	8ea9                	xor	a3,a3,a0
    10000112:	8a85                	andi	a3,a3,1
    10000114:	d6d5                	beqz	a3,100000c0 <main+0x72>
    10000116:	00a4051b          	addiw	a0,s0,10
    1000011a:	7422                	ld	s0,40(sp)
    1000011c:	6145                	addi	sp,sp,48
    1000011e:	8082                	ret
    10000120:	2579                	addiw	a0,a0,30
    10000122:	bfe5                	j	1000011a <main+0xcc>
    10000124:	05a5051b          	addiw	a0,a0,90
    10000128:	bfcd                	j	1000011a <main+0xcc>
    1000012a:	2405                	addiw	s0,s0,1
    1000012c:	47a1                	li	a5,8
    1000012e:	0f91                	addi	t6,t6,4
    10000130:	040f0f1b          	addiw	t5,t5,64
    10000134:	f8f414e3          	bne	s0,a5,100000bc <main+0x6e>
    10000138:	4501                	li	a0,0
    1000013a:	b7c5                	j	1000011a <main+0xcc>
